Archive member included to satisfy reference by file (symbol)

c:/mingw/bin/../lib/gcc/mingw32/6.3.0/../../..\libmingw32.a(CRTglob.o)
                              c:/mingw/bin/../lib/gcc/mingw32/6.3.0/../../../crt2.o (_CRT_glob)
c:/mingw/bin/../lib/gcc/mingw32/6.3.0/../../..\libmingw32.a(setargv.o)
                              c:/mingw/bin/../lib/gcc/mingw32/6.3.0/../../../crt2.o (_setargv)
c:/mingw/bin/../lib/gcc/mingw32/6.3.0/../../..\libmingw32.a(CRTfmode.o)
                              c:/mingw/bin/../lib/gcc/mingw32/6.3.0/../../../crt2.o (_CRT_fmode)
c:/mingw/bin/../lib/gcc/mingw32/6.3.0/../../..\libmingw32.a(cpu_features.o)
                              c:/mingw/bin/../lib/gcc/mingw32/6.3.0/../../../crt2.o (__cpu_features_init)
c:/mingw/bin/../lib/gcc/mingw32/6.3.0/../../..\libmingw32.a(CRT_fp10.o)
                              c:/mingw/bin/../lib/gcc/mingw32/6.3.0/../../../crt2.o (_CRT_fenv)
c:/mingw/bin/../lib/gcc/mingw32/6.3.0/../../..\libmingw32.a(txtmode.o)
                              c:/mingw/bin/../lib/gcc/mingw32/6.3.0/../../../crt2.o (_fmode)
c:/mingw/bin/../lib/gcc/mingw32/6.3.0/../../..\libmingw32.a(gccmain.o)
                              c:/mingw/bin/../lib/gcc/mingw32/6.3.0/../../../crt2.o (__main)
c:/mingw/bin/../lib/gcc/mingw32/6.3.0/../../..\libmingw32.a(tlssup.o)
                              c:/mingw/bin/../lib/gcc/mingw32/6.3.0/../../../crt2.o (__dyn_tls_init_callback)
c:/mingw/bin/../lib/gcc/mingw32/6.3.0/../../..\libmingw32.a(tlsthrd.o)
                              c:/mingw/bin/../lib/gcc/mingw32/6.3.0/../../..\libmingw32.a(tlssup.o) (__mingw_TLScallback)
c:/mingw/bin/../lib/gcc/mingw32/6.3.0/../../..\libmingw32.a(pseudo-reloc.o)
                              c:/mingw/bin/../lib/gcc/mingw32/6.3.0/../../../crt2.o (_pei386_runtime_relocator)
c:/mingw/bin/../lib/gcc/mingw32/6.3.0/../../..\libmingw32.a(pseudo-reloc-list.o)
                              c:/mingw/bin/../lib/gcc/mingw32/6.3.0/../../..\libmingw32.a(pseudo-reloc.o) (__RUNTIME_PSEUDO_RELOC_LIST__)
c:/mingw/bin/../lib/gcc/mingw32/6.3.0/../../..\libmingw32.a(crtst.o)
                              c:/mingw/bin/../lib/gcc/mingw32/6.3.0/../../..\libmingw32.a(tlssup.o) (_CRT_MT)
c:/mingw/bin/../lib/gcc/mingw32/6.3.0\libgcc.a(_chkstk_ms.o)
                              c:/mingw/bin/../lib/gcc/mingw32/6.3.0/../../..\libmingw32.a(setargv.o) (__chkstk_ms)
c:/mingw/bin/../lib/gcc/mingw32/6.3.0\libgcc.a(_ctors.o)
                              c:/mingw/bin/../lib/gcc/mingw32/6.3.0/../../..\libmingw32.a(gccmain.o) (__DTOR_LIST__)
c:/mingw/bin/../lib/gcc/mingw32/6.3.0\libgcc.a(_divdi3.o)
                              build/num_to_str.o (__divdi3)
c:/mingw/bin/../lib/gcc/mingw32/6.3.0\libgcc.a(_udivdi3.o)
                              build/clock_mcal.o (__udivdi3)
c:/mingw/bin/../lib/gcc/mingw32/6.3.0\libgcc.a(_umoddi3.o)
                              build/oprintf.o (__umoddi3)
c:/mingw/bin/../lib/gcc/mingw32/6.3.0/../../..\libmoldname.a(dagwbs00047.o)
                              build/string_reader.o (kbhit)
c:/mingw/bin/../lib/gcc/mingw32/6.3.0/../../..\libmoldname.a(dagwbh.o)
                              c:/mingw/bin/../lib/gcc/mingw32/6.3.0/../../..\libmoldname.a(dagwbs00047.o) (_head_libmoldname_a)
c:/mingw/bin/../lib/gcc/mingw32/6.3.0/../../..\libmoldname.a(dagwbt.o)
                              c:/mingw/bin/../lib/gcc/mingw32/6.3.0/../../..\libmoldname.a(dagwbh.o) (_libmoldname_a_iname)
c:/mingw/bin/../lib/gcc/mingw32/6.3.0/../../..\libmingwex.a(fesetenv.o)
                              c:/mingw/bin/../lib/gcc/mingw32/6.3.0/../../../crt2.o (fesetenv)
c:/mingw/bin/../lib/gcc/mingw32/6.3.0/../../..\libmingwex.a(cosf.o)
                              build/utils_math.o (cosf)
c:/mingw/bin/../lib/gcc/mingw32/6.3.0/../../..\libmingwex.a(sinf.o)
                              build/utils_math.o (sinf)
c:/mingw/bin/../lib/gcc/mingw32/6.3.0/../../..\libmingwex.a(ceilf.o)
                              build/bit_utils.o (ceilf)
c:/mingw/bin/../lib/gcc/mingw32/6.3.0/../../..\libmingwex.a(fmax.o)
                              build/float_utils.o (fmax)
c:/mingw/bin/../lib/gcc/mingw32/6.3.0/../../..\libmingwex.a(fmaxf.o)
                              build/float_utils.o (fmaxf)
c:/mingw/bin/../lib/gcc/mingw32/6.3.0/../../..\libmingwex.a(fmodf.o)
                              build/utils_math.o (fmodf)
c:/mingw/bin/../lib/gcc/mingw32/6.3.0/../../..\libmingwex.a(fpclassifyf.o)
                              build/convert.o (__fpclassifyf)
c:/mingw/bin/../lib/gcc/mingw32/6.3.0/../../..\libmingwex.a(log10f.o)
                              build/float_diag.o (log10f)
c:/mingw/bin/../lib/gcc/mingw32/6.3.0/../../..\libmingwex.a(logf.o)
                              build/bit_utils.o (logf)
c:/mingw/bin/../lib/gcc/mingw32/6.3.0/../../..\libmingwex.a(powf.o)
                              build/storage.o (powf)
c:/mingw/bin/../lib/gcc/mingw32/6.3.0/../../..\libmingwex.a(rintf.o)
                              build/clock_general.o (rintf)
c:/mingw/bin/../lib/gcc/mingw32/6.3.0/../../..\libmingwex.a(x87cvtf.o)
                              c:/mingw/bin/../lib/gcc/mingw32/6.3.0/../../..\libmingwex.a(log10f.o) (__x87cvtf)
c:/mingw/bin/../lib/gcc/mingw32/6.3.0/../../..\libmingwex.a(x87log.o)
                              c:/mingw/bin/../lib/gcc/mingw32/6.3.0/../../..\libmingwex.a(log10f.o) (__x87log_chk)
c:/mingw/bin/../lib/gcc/mingw32/6.3.0/../../..\libmingwex.a(x87pow.o)
                              c:/mingw/bin/../lib/gcc/mingw32/6.3.0/../../..\libmingwex.a(powf.o) (__x87pow)
c:/mingw/bin/../lib/gcc/mingw32/6.3.0/../../..\libmingwex.a(snprintf.o)
                              build/akip1160_mcal.o (snprintf)
c:/mingw/bin/../lib/gcc/mingw32/6.3.0/../../..\libmingwex.a(vfprintf.o)
                              build/csv.o (__mingw_vfprintf)
c:/mingw/bin/../lib/gcc/mingw32/6.3.0/../../..\libmingwex.a(vprintf.o)
                              build/writer_stdout.o (__mingw_vprintf)
c:/mingw/bin/../lib/gcc/mingw32/6.3.0/../../..\libmingwex.a(vsnprintf.o)
                              c:/mingw/bin/../lib/gcc/mingw32/6.3.0/../../..\libmingwex.a(snprintf.o) (__mingw_vsnprintf)
c:/mingw/bin/../lib/gcc/mingw32/6.3.0/../../..\libmingwex.a(vsprintf.o)
                              build/convert_diag.o (__mingw_vsprintf)
c:/mingw/bin/../lib/gcc/mingw32/6.3.0/../../..\libmingwex.a(glob.o)
                              c:/mingw/bin/../lib/gcc/mingw32/6.3.0/../../..\libmingw32.a(setargv.o) (__mingw_glob)
c:/mingw/bin/../lib/gcc/mingw32/6.3.0/../../..\libmingwex.a(dirname.o)
                              c:/mingw/bin/../lib/gcc/mingw32/6.3.0/../../..\libmingwex.a(glob.o) (__mingw_dirname)
c:/mingw/bin/../lib/gcc/mingw32/6.3.0/../../..\libmingwex.a(dirent.o)
                              c:/mingw/bin/../lib/gcc/mingw32/6.3.0/../../..\libmingwex.a(glob.o) (__mingw_opendir)
c:/mingw/bin/../lib/gcc/mingw32/6.3.0/../../..\libmingwex.a(strcasecmp.jmpstub.o)
                              build/log_diag.o (strcasecmp)
c:/mingw/bin/../lib/gcc/mingw32/6.3.0/../../..\libmingwex.a(pformat.o)
                              c:/mingw/bin/../lib/gcc/mingw32/6.3.0/../../..\libmingwex.a(vfprintf.o) (__mingw_pformat)
c:/mingw/bin/../lib/gcc/mingw32/6.3.0/../../..\libmingwex.a(varofmt.o)
                              c:/mingw/bin/../lib/gcc/mingw32/6.3.0/../../..\libmingwex.a(pformat.o) (__mingw_output_format_flags)
c:/mingw/bin/../lib/gcc/mingw32/6.3.0/../../..\libmingwex.a(mbrtowc.o)
                              c:/mingw/bin/../lib/gcc/mingw32/6.3.0/../../..\libmingwex.a(pformat.o) (mbrtowc)
c:/mingw/bin/../lib/gcc/mingw32/6.3.0/../../..\libmingwex.a(wcrtomb.o)
                              c:/mingw/bin/../lib/gcc/mingw32/6.3.0/../../..\libmingwex.a(pformat.o) (wcrtomb)
c:/mingw/bin/../lib/gcc/mingw32/6.3.0/../../..\libmingwex.a(gdtoa.o)
                              c:/mingw/bin/../lib/gcc/mingw32/6.3.0/../../..\libmingwex.a(pformat.o) (__gdtoa)
c:/mingw/bin/../lib/gcc/mingw32/6.3.0/../../..\libmingwex.a(gmisc.o)
                              c:/mingw/bin/../lib/gcc/mingw32/6.3.0/../../..\libmingwex.a(gdtoa.o) (__rshift_D2A)
c:/mingw/bin/../lib/gcc/mingw32/6.3.0/../../..\libmingwex.a(dmisc.o)
                              c:/mingw/bin/../lib/gcc/mingw32/6.3.0/../../..\libmingwex.a(gdtoa.o) (__rv_alloc_D2A)
c:/mingw/bin/../lib/gcc/mingw32/6.3.0/../../..\libmingwex.a(misc.o)
                              c:/mingw/bin/../lib/gcc/mingw32/6.3.0/../../..\libmingwex.a(gdtoa.o) (__Balloc_D2A)
c:/mingw/bin/../lib/gcc/mingw32/6.3.0/../../..\libmsvcrt.a(djpvbs01325.o)
                              c:/mingw/bin/../lib/gcc/mingw32/6.3.0/../../..\libmingwex.a(dirname.o) (wcstombs)
c:/mingw/bin/../lib/gcc/mingw32/6.3.0/../../..\libmsvcrt.a(djpvbs01308.o)
                              c:/mingw/bin/../lib/gcc/mingw32/6.3.0/../../..\libmingwex.a(pformat.o) (wcslen)
c:/mingw/bin/../lib/gcc/mingw32/6.3.0/../../..\libmsvcrt.a(djpvbs01284.o)
                              c:/mingw/bin/../lib/gcc/mingw32/6.3.0/../../..\libmingw32.a(pseudo-reloc.o) (vfprintf)
c:/mingw/bin/../lib/gcc/mingw32/6.3.0/../../..\libmsvcrt.a(djpvbs01278.o)
                              build/str_utils.o (toupper)
c:/mingw/bin/../lib/gcc/mingw32/6.3.0/../../..\libmsvcrt.a(djpvbs01277.o)
                              build/convert.o (tolower)
c:/mingw/bin/../lib/gcc/mingw32/6.3.0/../../..\libmsvcrt.a(djpvbs01272.o)
                              build/win_utils.o (time)
c:/mingw/bin/../lib/gcc/mingw32/6.3.0/../../..\libmsvcrt.a(djpvbs01269.o)
                              build/win_utils.o (system)
c:/mingw/bin/../lib/gcc/mingw32/6.3.0/../../..\libmsvcrt.a(djpvbs01258.o)
                              build/convert.o (strstr)
c:/mingw/bin/../lib/gcc/mingw32/6.3.0/../../..\libmsvcrt.a(djpvbs01257.o)
                              build/str_utils.o (strspn)
c:/mingw/bin/../lib/gcc/mingw32/6.3.0/../../..\libmsvcrt.a(djpvbs01253.o)
                              build/num_to_str.o (strncpy)
c:/mingw/bin/../lib/gcc/mingw32/6.3.0/../../..\libmsvcrt.a(djpvbs01252.o)
                              build/str_utils.o (strncmp)
c:/mingw/bin/../lib/gcc/mingw32/6.3.0/../../..\libmsvcrt.a(djpvbs01249.o)
                              build/akip1160_mcal.o (strlen)
c:/mingw/bin/../lib/gcc/mingw32/6.3.0/../../..\libmsvcrt.a(djpvbs01245.o)
                              build/str_utils.o (strcspn)
c:/mingw/bin/../lib/gcc/mingw32/6.3.0/../../..\libmsvcrt.a(djpvbs01243.o)
                              build/str_utils.o (strcpy)
c:/mingw/bin/../lib/gcc/mingw32/6.3.0/../../..\libmsvcrt.a(djpvbs01242.o)
                              c:/mingw/bin/../lib/gcc/mingw32/6.3.0/../../..\libmingwex.a(glob.o) (strcoll)
c:/mingw/bin/../lib/gcc/mingw32/6.3.0/../../..\libmsvcrt.a(djpvbs01241.o)
                              build/convert.o (strcmp)
c:/mingw/bin/../lib/gcc/mingw32/6.3.0/../../..\libmsvcrt.a(djpvbs01240.o)
                              build/str_utils.o (strchr)
c:/mingw/bin/../lib/gcc/mingw32/6.3.0/../../..\libmsvcrt.a(djpvbs01236.o)
                              build/test_convert.o (sscanf)
c:/mingw/bin/../lib/gcc/mingw32/6.3.0/../../..\libmsvcrt.a(djpvbs01235.o)
                              build/array.o (srand)
c:/mingw/bin/../lib/gcc/mingw32/6.3.0/../../..\libmsvcrt.a(djpvbs01230.o)
                              build/utils_math.o (sin)
c:/mingw/bin/../lib/gcc/mingw32/6.3.0/../../..\libmsvcrt.a(djpvbs01229.o)
                              c:/mingw/bin/../lib/gcc/mingw32/6.3.0/../../../crt2.o (signal)
c:/mingw/bin/../lib/gcc/mingw32/6.3.0/../../..\libmsvcrt.a(djpvbs01227.o)
                              c:/mingw/bin/../lib/gcc/mingw32/6.3.0/../../..\libmingwex.a(dirname.o) (setlocale)
c:/mingw/bin/../lib/gcc/mingw32/6.3.0/../../..\libmsvcrt.a(djpvbs01220.o)
                              c:/mingw/bin/../lib/gcc/mingw32/6.3.0/../../..\libmingwex.a(glob.o) (realloc)
c:/mingw/bin/../lib/gcc/mingw32/6.3.0/../../..\libmsvcrt.a(djpvbs01218.o)
                              build/array.o (rand)
c:/mingw/bin/../lib/gcc/mingw32/6.3.0/../../..\libmsvcrt.a(djpvbs01215.o)
                              build/array.o (qsort)
c:/mingw/bin/../lib/gcc/mingw32/6.3.0/../../..\libmsvcrt.a(djpvbs01212.o)
                              build/helper.o (puts)
c:/mingw/bin/../lib/gcc/mingw32/6.3.0/../../..\libmsvcrt.a(djpvbs01211.o)
                              build/helper.o (putchar)
c:/mingw/bin/../lib/gcc/mingw32/6.3.0/../../..\libmsvcrt.a(djpvbs01207.o)
                              build/convert.o (pow)
c:/mingw/bin/../lib/gcc/mingw32/6.3.0/../../..\libmsvcrt.a(djpvbs01204.o)
                              build/time_mcal.o (mktime)
c:/mingw/bin/../lib/gcc/mingw32/6.3.0/../../..\libmsvcrt.a(djpvbs01203.o)
                              build/array.o (memset)
c:/mingw/bin/../lib/gcc/mingw32/6.3.0/../../..\libmsvcrt.a(djpvbs01201.o)
                              build/str_utils.o (memmove)
c:/mingw/bin/../lib/gcc/mingw32/6.3.0/../../..\libmsvcrt.a(djpvbs01199.o)
                              build/array.o (memcpy)
c:/mingw/bin/../lib/gcc/mingw32/6.3.0/../../..\libmsvcrt.a(djpvbs01194.o)
                              c:/mingw/bin/../lib/gcc/mingw32/6.3.0/../../..\libmingwex.a(dirname.o) (mbstowcs)
c:/mingw/bin/../lib/gcc/mingw32/6.3.0/../../..\libmsvcrt.a(djpvbs01187.o)
                              build/array.o (malloc)
c:/mingw/bin/../lib/gcc/mingw32/6.3.0/../../..\libmsvcrt.a(djpvbs01185.o)
                              build/num_to_str.o (log10)
c:/mingw/bin/../lib/gcc/mingw32/6.3.0/../../..\libmsvcrt.a(djpvbs01184.o)
                              build/bit_utils.o (log)
c:/mingw/bin/../lib/gcc/mingw32/6.3.0/../../..\libmsvcrt.a(djpvbs01183.o)
                              build/time_mcal.o (localtime)
c:/mingw/bin/../lib/gcc/mingw32/6.3.0/../../..\libmsvcrt.a(djpvbs01182.o)
                              c:/mingw/bin/../lib/gcc/mingw32/6.3.0/../../..\libmingwex.a(pformat.o) (localeconv)
c:/mingw/bin/../lib/gcc/mingw32/6.3.0/../../..\libmsvcrt.a(djpvbs01163.o)
                              build/convert.o (isspace)
c:/mingw/bin/../lib/gcc/mingw32/6.3.0/../../..\libmsvcrt.a(djpvbs01161.o)
                              build/helper.o (isprint)
c:/mingw/bin/../lib/gcc/mingw32/6.3.0/../../..\libmsvcrt.a(djpvbs01147.o)
                              c:/mingw/bin/../lib/gcc/mingw32/6.3.0/../../..\libmingwex.a(pformat.o) (getenv)
c:/mingw/bin/../lib/gcc/mingw32/6.3.0/../../..\libmsvcrt.a(djpvbs01142.o)
                              c:/mingw/bin/../lib/gcc/mingw32/6.3.0/../../..\libmingw32.a(pseudo-reloc.o) (fwrite)
c:/mingw/bin/../lib/gcc/mingw32/6.3.0/../../..\libmsvcrt.a(djpvbs01131.o)
                              build/str_utils_ex.o (free)
c:/mingw/bin/../lib/gcc/mingw32/6.3.0/../../..\libmsvcrt.a(djpvbs01126.o)
                              c:/mingw/bin/../lib/gcc/mingw32/6.3.0/../../..\libmingwex.a(pformat.o) (fputc)
c:/mingw/bin/../lib/gcc/mingw32/6.3.0/../../..\libmsvcrt.a(djpvbs01122.o)
                              build/csv.o (fopen)
c:/mingw/bin/../lib/gcc/mingw32/6.3.0/../../..\libmsvcrt.a(djpvbs01111.o)
                              build/csv.o (fclose)
c:/mingw/bin/../lib/gcc/mingw32/6.3.0/../../..\libmsvcrt.a(djpvbs01108.o)
                              build/string_reader.o (exit)
c:/mingw/bin/../lib/gcc/mingw32/6.3.0/../../..\libmsvcrt.a(djpvbs01106.o)
                              build/time_mcal.o (difftime)
c:/mingw/bin/../lib/gcc/mingw32/6.3.0/../../..\libmsvcrt.a(djpvbs01102.o)
                              build/clock_mcal.o (clock)
c:/mingw/bin/../lib/gcc/mingw32/6.3.0/../../..\libmsvcrt.a(djpvbs01099.o)
                              build/bit_utils.o (ceil)
c:/mingw/bin/../lib/gcc/mingw32/6.3.0/../../..\libmsvcrt.a(djpvbs01098.o)
                              c:/mingw/bin/../lib/gcc/mingw32/6.3.0/../../..\libmingw32.a(tlsthrd.o) (calloc)
c:/mingw/bin/../lib/gcc/mingw32/6.3.0/../../..\libmsvcrt.a(djpvbs01093.o)
                              c:/mingw/bin/../lib/gcc/mingw32/6.3.0/../../..\libmingwex.a(mbrtowc.o) (atoi)
c:/mingw/bin/../lib/gcc/mingw32/6.3.0/../../..\libmsvcrt.a(djpvbs01091.o)
                              c:/mingw/bin/../lib/gcc/mingw32/6.3.0/../../../crt2.o (_imp__atexit)
c:/mingw/bin/../lib/gcc/mingw32/6.3.0/../../..\libmsvcrt.a(djpvbs01083.o)
                              c:/mingw/bin/../lib/gcc/mingw32/6.3.0/../../..\libmingw32.a(pseudo-reloc.o) (abort)
c:/mingw/bin/../lib/gcc/mingw32/6.3.0/../../..\libmsvcrt.a(djpvbs00803.o)
                              c:/mingw/bin/../lib/gcc/mingw32/6.3.0/../../..\libmingwex.a(strcasecmp.jmpstub.o) (_stricmp)
c:/mingw/bin/../lib/gcc/mingw32/6.3.0/../../..\libmsvcrt.a(djpvbs00753.o)
                              c:/mingw/bin/../lib/gcc/mingw32/6.3.0/../../../crt2.o (_setmode)
c:/mingw/bin/../lib/gcc/mingw32/6.3.0/../../..\libmsvcrt.a(djpvbs00698.o)
                              c:/mingw/bin/../lib/gcc/mingw32/6.3.0/../../..\libmingw32.a(setargv.o) (_imp___pctype)
c:/mingw/bin/../lib/gcc/mingw32/6.3.0/../../..\libmsvcrt.a(djpvbs00689.o)
                              c:/mingw/bin/../lib/gcc/mingw32/6.3.0/../../../crt2.o (_imp___onexit)
c:/mingw/bin/../lib/gcc/mingw32/6.3.0/../../..\libmsvcrt.a(djpvbs00422.o)
                              c:/mingw/bin/../lib/gcc/mingw32/6.3.0/../../..\libmingw32.a(setargv.o) (_isctype)
c:/mingw/bin/../lib/gcc/mingw32/6.3.0/../../..\libmsvcrt.a(djpvbs00417.o)
                              c:/mingw/bin/../lib/gcc/mingw32/6.3.0/../../../crt2.o (_imp___iob)
c:/mingw/bin/../lib/gcc/mingw32/6.3.0/../../..\libmsvcrt.a(djpvbs00379.o)
                              build/string_reader.o (_getch)
c:/mingw/bin/../lib/gcc/mingw32/6.3.0/../../..\libmsvcrt.a(djpvbs00350.o)
                              c:/mingw/bin/../lib/gcc/mingw32/6.3.0/../../..\libmingwex.a(dirent.o) (_fullpath)
c:/mingw/bin/../lib/gcc/mingw32/6.3.0/../../..\libmsvcrt.a(djpvbs00324.o)
                              c:/mingw/bin/../lib/gcc/mingw32/6.3.0/../../..\libmingwex.a(fesetenv.o) (_imp___fpreset)
c:/mingw/bin/../lib/gcc/mingw32/6.3.0/../../..\libmsvcrt.a(djpvbs00285.o)
                              c:/mingw/bin/../lib/gcc/mingw32/6.3.0/../../..\libmingwex.a(x87cvtf.o) (_errno)
c:/mingw/bin/../lib/gcc/mingw32/6.3.0/../../..\libmsvcrt.a(djpvbs00219.o)
                              c:/mingw/bin/../lib/gcc/mingw32/6.3.0/../../../crt2.o (_cexit)
c:/mingw/bin/../lib/gcc/mingw32/6.3.0/../../..\libmsvcrt.a(djpvbs00153.o)
                              c:/mingw/bin/../lib/gcc/mingw32/6.3.0/../../../crt2.o (_imp____set_app_type)
c:/mingw/bin/../lib/gcc/mingw32/6.3.0/../../..\libmsvcrt.a(djpvbs00133.o)
                              c:/mingw/bin/../lib/gcc/mingw32/6.3.0/../../../crt2.o (__p__fmode)
c:/mingw/bin/../lib/gcc/mingw32/6.3.0/../../..\libmsvcrt.a(djpvbs00131.o)
                              c:/mingw/bin/../lib/gcc/mingw32/6.3.0/../../../crt2.o (__p__environ)
c:/mingw/bin/../lib/gcc/mingw32/6.3.0/../../..\libmsvcrt.a(djpvbs00119.o)
                              c:/mingw/bin/../lib/gcc/mingw32/6.3.0/../../..\libmingw32.a(setargv.o) (_imp____mb_cur_max)
c:/mingw/bin/../lib/gcc/mingw32/6.3.0/../../..\libmsvcrt.a(djpvbs00088.o)
                              c:/mingw/bin/../lib/gcc/mingw32/6.3.0/../../../crt2.o (__getmainargs)
c:/mingw/bin/../lib/gcc/mingw32/6.3.0/../../..\libmsvcrt.a(djpvbh.o)
                              c:/mingw/bin/../lib/gcc/mingw32/6.3.0/../../..\libmsvcrt.a(djpvbs01325.o) (_head_libmsvcrt_a)
c:/mingw/bin/../lib/gcc/mingw32/6.3.0/../../..\libmsvcrt.a(djpvbt.o)
                              c:/mingw/bin/../lib/gcc/mingw32/6.3.0/../../..\libmsvcrt.a(djpvbh.o) (_libmsvcrt_a_iname)
c:/mingw/bin/../lib/gcc/mingw32/6.3.0/../../..\libkernel32.a(dujcs01267.o)
                              build/serial_port.o (WriteFile@20)
c:/mingw/bin/../lib/gcc/mingw32/6.3.0/../../..\libkernel32.a(dujcs01247.o)
                              c:/mingw/bin/../lib/gcc/mingw32/6.3.0/../../..\libmingwex.a(wcrtomb.o) (WideCharToMultiByte@32)
c:/mingw/bin/../lib/gcc/mingw32/6.3.0/../../..\libkernel32.a(dujcs01215.o)
                              c:/mingw/bin/../lib/gcc/mingw32/6.3.0/../../..\libmingw32.a(pseudo-reloc.o) (VirtualQuery@12)
c:/mingw/bin/../lib/gcc/mingw32/6.3.0/../../..\libkernel32.a(dujcs01213.o)
                              c:/mingw/bin/../lib/gcc/mingw32/6.3.0/../../..\libmingw32.a(pseudo-reloc.o) (VirtualProtect@16)
c:/mingw/bin/../lib/gcc/mingw32/6.3.0/../../..\libkernel32.a(dujcs01173.o)
                              c:/mingw/bin/../lib/gcc/mingw32/6.3.0/../../..\libmingw32.a(tlsthrd.o) (TlsGetValue@4)
c:/mingw/bin/../lib/gcc/mingw32/6.3.0/../../..\libkernel32.a(dujcs01152.o)
                              c:/mingw/bin/../lib/gcc/mingw32/6.3.0/../../..\libmingwex.a(misc.o) (Sleep@4)
c:/mingw/bin/../lib/gcc/mingw32/6.3.0/../../..\libkernel32.a(dujcs01140.o)
                              c:/mingw/bin/../lib/gcc/mingw32/6.3.0/../../../crt2.o (SetUnhandledExceptionFilter@4)
c:/mingw/bin/../lib/gcc/mingw32/6.3.0/../../..\libkernel32.a(dujcs01037.o)
                              build/win_utils.o (SetConsoleMode@8)
c:/mingw/bin/../lib/gcc/mingw32/6.3.0/../../..\libkernel32.a(dujcs01014.o)
                              build/serial_port.o (SetCommTimeouts@8)
c:/mingw/bin/../lib/gcc/mingw32/6.3.0/../../..\libkernel32.a(dujcs01013.o)
                              build/serial_port.o (SetCommState@8)
c:/mingw/bin/../lib/gcc/mingw32/6.3.0/../../..\libkernel32.a(dujcs00947.o)
                              build/serial_port.o (ReadFile@20)
c:/mingw/bin/../lib/gcc/mingw32/6.3.0/../../..\libkernel32.a(dujcs00860.o)
                              c:/mingw/bin/../lib/gcc/mingw32/6.3.0/../../..\libmingwex.a(mbrtowc.o) (MultiByteToWideChar@24)
c:/mingw/bin/../lib/gcc/mingw32/6.3.0/../../..\libkernel32.a(dujcs00817.o)
                              c:/mingw/bin/../lib/gcc/mingw32/6.3.0/crtbegin.o (LoadLibraryA@4)
c:/mingw/bin/../lib/gcc/mingw32/6.3.0/../../..\libkernel32.a(dujcs00814.o)
                              c:/mingw/bin/../lib/gcc/mingw32/6.3.0/../../..\libmingw32.a(tlsthrd.o) (LeaveCriticalSection@4)
c:/mingw/bin/../lib/gcc/mingw32/6.3.0/../../..\libkernel32.a(dujcs00763.o)
                              c:/mingw/bin/../lib/gcc/mingw32/6.3.0/../../..\libmingwex.a(mbrtowc.o) (IsDBCSLeadByteEx@8)
c:/mingw/bin/../lib/gcc/mingw32/6.3.0/../../..\libkernel32.a(dujcs00744.o)
                              c:/mingw/bin/../lib/gcc/mingw32/6.3.0/../../..\libmingwex.a(misc.o) (InterlockedExchange@8)
c:/mingw/bin/../lib/gcc/mingw32/6.3.0/../../..\libkernel32.a(dujcs00734.o)
                              c:/mingw/bin/../lib/gcc/mingw32/6.3.0/../../..\libmingw32.a(tlsthrd.o) (InitializeCriticalSection@4)
c:/mingw/bin/../lib/gcc/mingw32/6.3.0/../../..\libkernel32.a(dujcs00608.o)
                              build/win_utils.o (GetStdHandle@4)
c:/mingw/bin/../lib/gcc/mingw32/6.3.0/../../..\libkernel32.a(dujcs00577.o)
                              c:/mingw/bin/../lib/gcc/mingw32/6.3.0/crtbegin.o (GetProcAddress@8)
c:/mingw/bin/../lib/gcc/mingw32/6.3.0/../../..\libkernel32.a(dujcs00529.o)
                              c:/mingw/bin/../lib/gcc/mingw32/6.3.0/crtbegin.o (GetModuleHandleA@4)
c:/mingw/bin/../lib/gcc/mingw32/6.3.0/../../..\libkernel32.a(dujcs00510.o)
                              build/serial_port.o (GetLastError@0)
c:/mingw/bin/../lib/gcc/mingw32/6.3.0/../../..\libkernel32.a(dujcs00426.o)
                              build/win_utils.o (GetConsoleMode@8)
c:/mingw/bin/../lib/gcc/mingw32/6.3.0/../../..\libkernel32.a(dujcs00388.o)
                              c:/mingw/bin/../lib/gcc/mingw32/6.3.0/../../..\libmingw32.a(setargv.o) (GetCommandLineA@0)
c:/mingw/bin/../lib/gcc/mingw32/6.3.0/../../..\libkernel32.a(dujcs00386.o)
                              build/serial_port.o (GetCommState@8)
c:/mingw/bin/../lib/gcc/mingw32/6.3.0/../../..\libkernel32.a(dujcs00352.o)
                              c:/mingw/bin/../lib/gcc/mingw32/6.3.0/crtbegin.o (FreeLibrary@4)
c:/mingw/bin/../lib/gcc/mingw32/6.3.0/../../..\libkernel32.a(dujcs00321.o)
                              c:/mingw/bin/../lib/gcc/mingw32/6.3.0/../../..\libmingwex.a(dirent.o) (FindNextFileA@8)
c:/mingw/bin/../lib/gcc/mingw32/6.3.0/../../..\libkernel32.a(dujcs00304.o)
                              c:/mingw/bin/../lib/gcc/mingw32/6.3.0/../../..\libmingwex.a(dirent.o) (FindFirstFileA@8)
c:/mingw/bin/../lib/gcc/mingw32/6.3.0/../../..\libkernel32.a(dujcs00300.o)
                              c:/mingw/bin/../lib/gcc/mingw32/6.3.0/../../..\libmingwex.a(dirent.o) (FindClose@4)
c:/mingw/bin/../lib/gcc/mingw32/6.3.0/../../..\libkernel32.a(dujcs00279.o)
                              c:/mingw/bin/../lib/gcc/mingw32/6.3.0/../../../crt2.o (ExitProcess@4)
c:/mingw/bin/../lib/gcc/mingw32/6.3.0/../../..\libkernel32.a(dujcs00236.o)
                              c:/mingw/bin/../lib/gcc/mingw32/6.3.0/../../..\libmingw32.a(tlsthrd.o) (EnterCriticalSection@4)
c:/mingw/bin/../lib/gcc/mingw32/6.3.0/../../..\libkernel32.a(dujcs00207.o)
                              c:/mingw/bin/../lib/gcc/mingw32/6.3.0/../../..\libmingw32.a(tlsthrd.o) (DeleteCriticalSection@4)
c:/mingw/bin/../lib/gcc/mingw32/6.3.0/../../..\libkernel32.a(dujcs00135.o)
                              build/serial_port.o (CreateFileA@28)
c:/mingw/bin/../lib/gcc/mingw32/6.3.0/../../..\libkernel32.a(dujcs00082.o)
                              build/serial_port.o (CloseHandle@4)
c:/mingw/bin/../lib/gcc/mingw32/6.3.0/../../..\libkernel32.a(dujch.o)
                              c:/mingw/bin/../lib/gcc/mingw32/6.3.0/../../..\libkernel32.a(dujcs01267.o) (_head_libkernel32_a)
c:/mingw/bin/../lib/gcc/mingw32/6.3.0/../../..\libkernel32.a(dujct.o)
                              c:/mingw/bin/../lib/gcc/mingw32/6.3.0/../../..\libkernel32.a(dujch.o) (_libkernel32_a_iname)
c:/mingw/bin/../lib/gcc/mingw32/6.3.0/../../..\libmoldname.a(dagwbs00082.o)
                              c:/mingw/bin/../lib/gcc/mingw32/6.3.0/../../..\libmingwex.a(glob.o) (stricoll)
c:/mingw/bin/../lib/gcc/mingw32/6.3.0/../../..\libmoldname.a(dagwbs00080.o)
                              c:/mingw/bin/../lib/gcc/mingw32/6.3.0/../../..\libmingwex.a(glob.o) (strdup)

Allocating common symbols
Common symbol       size              file

xyz                 0x3               build/test_sw_list.o
test_failed         0x1               build/unit_test.o
hmod_libgcc         0x4               c:/mingw/bin/../lib/gcc/mingw32/6.3.0/crtbegin.o
start_time_b        0xc               build/clock_mcal.o
g_up_time_ms        0x4               build/clock_mcal.o
last_cmd_result_str
                    0x29              build/print_buffer.o
start_time_ms       0x4               build/clock_mcal.o

Discarded input sections

 .drectve       0x00000000       0x1c c:/mingw/bin/../lib/gcc/mingw32/6.3.0/crtbegin.o
 .drectve       0x00000000       0x58 build/clock_mcal.o
 .drectve       0x00000000       0x24 build/print_buffer.o
 .drectve       0x00000000       0x3c c:/mingw/bin/../lib/gcc/mingw32/6.3.0\libgcc.a(_ctors.o)
 .text          0x00000000        0x8 c:/mingw/bin/../lib/gcc/mingw32/6.3.0/../../..\libmsvcrt.a(djpvbs00324.o)
 .text          0x00000000        0x8 c:/mingw/bin/../lib/gcc/mingw32/6.3.0/../../..\libmsvcrt.a(djpvbs00153.o)

Memory Configuration

Name             Origin             Length             Attributes
*default*        0x00000000         0xffffffff

Linker script and memory map

                0x00400000                __image_base__ = 0x400000
                0x00000000                __dll__ = 0x0
                0x00400000                ___ImageBase = 0x400000
                0x00001000                __section_alignment__ = 0x1000
                0x00000200                __file_alignment__ = 0x200
                0x00000004                __major_os_version__ = 0x4
                0x00000000                __minor_os_version__ = 0x0
                0x00000001                __major_image_version__ = 0x1
                0x00000000                __minor_image_version__ = 0x0
                0x00000004                __major_subsystem_version__ = 0x4
                0x00000000                __minor_subsystem_version__ = 0x0
                0x00000003                __subsystem__ = 0x3
                0x00200000                __size_of_stack_reserve__ = 0x200000
                0x00001000                __size_of_stack_commit__ = 0x1000
                0x00100000                __size_of_heap_reserve__ = 0x100000
                0x00001000                __size_of_heap_commit__ = 0x1000
                0x00000000                __loader_flags__ = 0x0
                0x00000000                __dll_characteristics__ = 0x0
LOAD c:/mingw/bin/../lib/gcc/mingw32/6.3.0/../../../crt2.o
LOAD c:/mingw/bin/../lib/gcc/mingw32/6.3.0/crtbegin.o
LOAD build/microcontroller_drv.o
LOAD build/microcontroller_diag.o
LOAD build/microcontroller_commands.o
LOAD build/cpu_x86.o
LOAD build/scheduler_config.o
LOAD build/clock_config.o
LOAD build/super_cycle_config.o
LOAD build/storage_config.o
LOAD build/writer_config.o
LOAD build/akip1160_mcal.o
LOAD build/akip1160_commands.o
LOAD build/applications_commands.o
LOAD build/mcal_diag.o
LOAD build/clock_general.o
LOAD build/clock_diag.o
LOAD build/clock_commands.o
LOAD build/hal_diag.o
LOAD build/clock_mcal.o
LOAD build/clock_custom_diag.o
LOAD build/clock_custom_commands.o
LOAD build/array.o
LOAD build/array_diag.o
LOAD build/array_commands.o
LOAD build/fifo_index.o
LOAD build/fifo_array.o
LOAD build/fifo_char.o
LOAD build/convert.o
LOAD build/num_to_str.o
LOAD build/convert_diag.o
LOAD build/str_utils.o
LOAD build/str_utils_ex.o
LOAD build/log.o
LOAD build/table_utils.o
LOAD build/writer.o
LOAD build/writer_stdout.o
LOAD build/log_utils.o
LOAD build/oprintf.o
LOAD build/print_format.o
LOAD build/log_commands.o
LOAD build/interface_drv.o
LOAD build/if_config.o
LOAD build/serial_port.o
LOAD build/serial_port_diag.o
LOAD build/serial_port_commands.o
LOAD build/protocol.o
LOAD build/protocol_diag.o
LOAD build/cli_drv.o
LOAD build/cli_general_config.o
LOAD build/cli_diag.o
LOAD build/cli_native_commands.o
LOAD build/csv.o
LOAD build/string_reader.o
LOAD build/string_reader_commands.o
LOAD build/connectivity.o
LOAD build/connectivity_commands.o
LOAD build/connectivity_diag.o
LOAD build/control_commands.o
LOAD build/control_diag.o
LOAD build/debugger.o
LOAD build/debugger_commands.o
LOAD build/super_cycle.o
LOAD build/super_cycle_diag.o
LOAD build/super_cycle_commands.o
LOAD build/system.o
LOAD build/scheduler_mcal.o
LOAD build/scheduler_diag.o
LOAD build/scheduler_commands.o
LOAD build/win_utils.o
LOAD build/pc_commands.o
LOAD build/rational_num.o
LOAD build/rational_num_diag.o
LOAD build/limiter.o
LOAD build/utils_math.o
LOAD build/math_diag.o
LOAD build/math_commands.o
LOAD build/timer_calc.o
LOAD build/timer_calc_diag.o
LOAD build/timer_calc_commands.o
LOAD build/computing.o
LOAD build/computing_commands.o
LOAD build/health_monitor.o
LOAD build/health_monitor_commands.o
LOAD build/time_mcal.o
LOAD build/none_blocking_pause.o
LOAD build/time_commands.o
LOAD build/sensitivity.o
LOAD build/sensitivity_diag.o
LOAD build/sensitivity_commands.o
LOAD build/file_api.o
LOAD build/storage.o
LOAD build/storage_commands.o
LOAD build/shared_array.o
LOAD build/common_functions.o
LOAD build/common_commands.o
LOAD build/bit_utils.o
LOAD build/bit_diag.o
LOAD build/bit_commands.o
LOAD build/byte_utils.o
LOAD build/word_utils.o
LOAD build/dword_utils.o
LOAD build/qword_utils.o
LOAD build/byte_diag.o
LOAD build/data_utils.o
LOAD build/helper.o
LOAD build/float_utils.o
LOAD build/float_diag.o
LOAD build/debug_info.o
LOAD build/print_buffer.o
LOAD build/test_config.o
LOAD build/unit_test.o
LOAD build/unit_test_commands.o
LOAD build/test_array.o
LOAD build/test_time_utils.o
LOAD build/float_test.o
LOAD build/test_math.o
LOAD build/test_csv.o
LOAD build/test_protocol.o
LOAD build/test_fifo_array.o
LOAD build/test_fifo_char.o
LOAD build/test_fifo_indexer.o
LOAD build/test_convert.o
LOAD build/test_string_utils.o
LOAD build/test_libc.o
LOAD build/test_sw_list.o
LOAD build/main.o
LOAD build/akip1160_diag.o
LOAD build/log_diag.o
LOAD build/interfaces_diag.o
LOAD build/csv_diag.o
LOAD build/system_diag.o
LOAD build/time_diag.o
LOAD build/storage_diag.o
LOAD build/common_diag.o
LOAD build/unit_test_diag.o
LOAD build/board_config.o
LOAD build/board_monitor.o
LOAD build/cli_config.o
LOAD build/mem_config.o
LOAD build/log_config.o
LOAD build/string_reader_config.o
LOAD build/serial_port_config.o
LOAD build/time_config.o
LOAD build/akip1160_config.o
LOAD build/third_party_main.o
LOAD c:/mingw/bin/../lib/gcc/mingw32/6.3.0/../../..\libm.a
LOAD c:/mingw/bin/../lib/gcc/mingw32/6.3.0/../../..\libmingw32.a
LOAD c:/mingw/bin/../lib/gcc/mingw32/6.3.0\libgcc.a
LOAD c:/mingw/bin/../lib/gcc/mingw32/6.3.0\libgcc_eh.a
LOAD c:/mingw/bin/../lib/gcc/mingw32/6.3.0/../../..\libmoldname.a
LOAD c:/mingw/bin/../lib/gcc/mingw32/6.3.0/../../..\libmingwex.a
LOAD c:/mingw/bin/../lib/gcc/mingw32/6.3.0/../../..\libmsvcrt.a
LOAD c:/mingw/bin/../lib/gcc/mingw32/6.3.0/../../..\libadvapi32.a
LOAD c:/mingw/bin/../lib/gcc/mingw32/6.3.0/../../..\libshell32.a
LOAD c:/mingw/bin/../lib/gcc/mingw32/6.3.0/../../..\libuser32.a
LOAD c:/mingw/bin/../lib/gcc/mingw32/6.3.0/../../..\libkernel32.a
LOAD c:/mingw/bin/../lib/gcc/mingw32/6.3.0/../../..\libmingw32.a
LOAD c:/mingw/bin/../lib/gcc/mingw32/6.3.0\libgcc.a
LOAD c:/mingw/bin/../lib/gcc/mingw32/6.3.0\libgcc_eh.a
LOAD c:/mingw/bin/../lib/gcc/mingw32/6.3.0/../../..\libmoldname.a
LOAD c:/mingw/bin/../lib/gcc/mingw32/6.3.0/../../..\libmingwex.a
LOAD c:/mingw/bin/../lib/gcc/mingw32/6.3.0/../../..\libmsvcrt.a
LOAD c:/mingw/bin/../lib/gcc/mingw32/6.3.0/crtend.o
                0x000003f8                . = SIZEOF_HEADERS
                0x00001000                . = ALIGN (__section_alignment__)

.text           0x00401000    0x69400
 *(.init)
 *(.text)
 .text          0x00401000      0x340 c:/mingw/bin/../lib/gcc/mingw32/6.3.0/../../../crt2.o
                0x004012a0                _mingw32_init_mainargs
                0x004012e0                mainCRTStartup
                0x00401300                WinMainCRTStartup
                0x00401320                atexit
                0x00401330                _onexit
 .text          0x00401340      0x120 c:/mingw/bin/../lib/gcc/mingw32/6.3.0/crtbegin.o
                0x00401340                __gcc_register_frame
                0x00401430                __gcc_deregister_frame
 .text          0x00401460        0x0 build/microcontroller_drv.o
 .text          0x00401460        0x0 build/microcontroller_diag.o
 .text          0x00401460        0x0 build/microcontroller_commands.o
 .text          0x00401460        0x0 build/cpu_x86.o
 .text          0x00401460        0x0 build/scheduler_config.o
 .text          0x00401460        0x0 build/clock_config.o
 .text          0x00401460        0x0 build/super_cycle_config.o
 .text          0x00401460        0x0 build/storage_config.o
 .text          0x00401460        0x0 build/writer_config.o
 .text          0x00401460        0x0 build/akip1160_mcal.o
 .text          0x00401460        0x0 build/akip1160_commands.o
 .text          0x00401460        0x0 build/applications_commands.o
 .text          0x00401460        0x0 build/mcal_diag.o
 .text          0x00401460        0x0 build/clock_general.o
 .text          0x00401460        0x0 build/clock_diag.o
 .text          0x00401460        0x0 build/clock_commands.o
 .text          0x00401460        0x0 build/hal_diag.o
 .text          0x00401460        0x0 build/clock_mcal.o
 .text          0x00401460        0x0 build/clock_custom_diag.o
 .text          0x00401460        0x0 build/clock_custom_commands.o
 .text          0x00401460        0x0 build/array.o
 .text          0x00401460        0x0 build/array_diag.o
 .text          0x00401460        0x0 build/array_commands.o
 .text          0x00401460        0x0 build/fifo_index.o
 .text          0x00401460        0x0 build/fifo_array.o
 .text          0x00401460        0x0 build/fifo_char.o
 .text          0x00401460        0x0 build/convert.o
 .text          0x00401460        0x0 build/num_to_str.o
 .text          0x00401460        0x0 build/convert_diag.o
 .text          0x00401460        0x0 build/str_utils.o
 .text          0x00401460        0x0 build/str_utils_ex.o
 .text          0x00401460        0x0 build/log.o
 .text          0x00401460        0x0 build/table_utils.o
 .text          0x00401460        0x0 build/writer.o
 .text          0x00401460        0x0 build/writer_stdout.o
 .text          0x00401460        0x0 build/log_utils.o
 .text          0x00401460        0x0 build/oprintf.o
 .text          0x00401460        0x0 build/print_format.o
 .text          0x00401460        0x0 build/log_commands.o
 .text          0x00401460        0x0 build/interface_drv.o
 .text          0x00401460        0x0 build/if_config.o
 .text          0x00401460        0x0 build/serial_port.o
 .text          0x00401460        0x0 build/serial_port_diag.o
 .text          0x00401460        0x0 build/serial_port_commands.o
 .text          0x00401460        0x0 build/protocol.o
 .text          0x00401460        0x0 build/protocol_diag.o
 .text          0x00401460        0x0 build/cli_drv.o
 .text          0x00401460        0x0 build/cli_general_config.o
 .text          0x00401460        0x0 build/cli_diag.o
 .text          0x00401460        0x0 build/cli_native_commands.o
 .text          0x00401460        0x0 build/csv.o
 .text          0x00401460        0x0 build/string_reader.o
 .text          0x00401460        0x0 build/string_reader_commands.o
 .text          0x00401460        0x0 build/connectivity.o
 .text          0x00401460        0x0 build/connectivity_commands.o
 .text          0x00401460        0x0 build/connectivity_diag.o
 .text          0x00401460        0x0 build/control_commands.o
 .text          0x00401460        0x0 build/control_diag.o
 .text          0x00401460        0x0 build/debugger.o
 .text          0x00401460        0x0 build/debugger_commands.o
 .text          0x00401460        0x0 build/super_cycle.o
 .text          0x00401460        0x0 build/super_cycle_diag.o
 .text          0x00401460        0x0 build/super_cycle_commands.o
 .text          0x00401460        0x0 build/system.o
 .text          0x00401460        0x0 build/scheduler_mcal.o
 .text          0x00401460        0x0 build/scheduler_diag.o
 .text          0x00401460        0x0 build/scheduler_commands.o
 .text          0x00401460        0x0 build/win_utils.o
 .text          0x00401460        0x0 build/pc_commands.o
 .text          0x00401460        0x0 build/rational_num.o
 .text          0x00401460        0x0 build/rational_num_diag.o
 .text          0x00401460        0x0 build/limiter.o
 .text          0x00401460        0x0 build/utils_math.o
 .text          0x00401460        0x0 build/math_diag.o
 .text          0x00401460        0x0 build/math_commands.o
 .text          0x00401460        0x0 build/timer_calc.o
 .text          0x00401460        0x0 build/timer_calc_diag.o
 .text          0x00401460        0x0 build/timer_calc_commands.o
 .text          0x00401460        0x0 build/computing.o
 .text          0x00401460        0x0 build/computing_commands.o
 .text          0x00401460        0x0 build/health_monitor.o
 .text          0x00401460        0x0 build/health_monitor_commands.o
 .text          0x00401460        0x0 build/time_mcal.o
 .text          0x00401460        0x0 build/none_blocking_pause.o
 .text          0x00401460        0x0 build/time_commands.o
 .text          0x00401460        0x0 build/sensitivity.o
 .text          0x00401460        0x0 build/sensitivity_diag.o
 .text          0x00401460        0x0 build/sensitivity_commands.o
 .text          0x00401460        0x0 build/file_api.o
 .text          0x00401460        0x0 build/storage.o
 .text          0x00401460        0x0 build/storage_commands.o
 .text          0x00401460        0x0 build/shared_array.o
 .text          0x00401460        0x0 build/common_functions.o
 .text          0x00401460        0x0 build/common_commands.o
 .text          0x00401460        0x0 build/bit_utils.o
 .text          0x00401460        0x0 build/bit_diag.o
 .text          0x00401460        0x0 build/bit_commands.o
 .text          0x00401460        0x0 build/byte_utils.o
 .text          0x00401460        0x0 build/word_utils.o
 .text          0x00401460        0x0 build/dword_utils.o
 .text          0x00401460        0x0 build/qword_utils.o
 .text          0x00401460        0x0 build/byte_diag.o
 .text          0x00401460        0x0 build/data_utils.o
 .text          0x00401460        0x0 build/helper.o
 .text          0x00401460        0x0 build/float_utils.o
 .text          0x00401460        0x0 build/float_diag.o
 .text          0x00401460        0x0 build/debug_info.o
 .text          0x00401460        0x0 build/print_buffer.o
 .text          0x00401460        0x0 build/test_config.o
 .text          0x00401460        0x0 build/unit_test.o
 .text          0x00401460        0x0 build/unit_test_commands.o
 .text          0x00401460        0x0 build/test_array.o
 .text          0x00401460        0x0 build/test_time_utils.o
 .text          0x00401460        0x0 build/float_test.o
 .text          0x00401460        0x0 build/test_math.o
 .text          0x00401460        0x0 build/test_csv.o
 .text          0x00401460        0x0 build/test_protocol.o
 .text          0x00401460        0x0 build/test_fifo_array.o
 .text          0x00401460        0x0 build/test_fifo_char.o
 .text          0x00401460        0x0 build/test_fifo_indexer.o
 .text          0x00401460        0x0 build/test_convert.o
 .text          0x00401460        0x0 build/test_string_utils.o
 .text          0x00401460        0x0 build/test_libc.o
 .text          0x00401460        0x0 build/test_sw_list.o
 .text          0x00401460        0x0 build/main.o
 .text          0x00401460        0x0 build/akip1160_diag.o
 .text          0x00401460        0x0 build/log_diag.o
 .text          0x00401460        0x0 build/interfaces_diag.o
 .text          0x00401460        0x0 build/csv_diag.o
 .text          0x00401460        0x0 build/system_diag.o
 .text          0x00401460        0x0 build/time_diag.o
 .text          0x00401460        0x0 build/storage_diag.o
 .text          0x00401460        0x0 build/common_diag.o
 .text          0x00401460        0x0 build/unit_test_diag.o
 .text          0x00401460        0x0 build/board_config.o
 .text          0x00401460        0x0 build/board_monitor.o
 .text          0x00401460        0x0 build/cli_config.o
 .text          0x00401460        0x0 build/mem_config.o
 .text          0x00401460        0x0 build/log_config.o
 .text          0x00401460        0x0 build/string_reader_config.o
 .text          0x00401460        0x0 build/serial_port_config.o
 .text          0x00401460        0x0 build/time_config.o
 .text          0x00401460        0x0 build/akip1160_config.o
 .text          0x00401460        0x0 build/third_party_main.o
 .text          0x00401460        0x0 c:/mingw/bin/../lib/gcc/mingw32/6.3.0/../../..\libmingw32.a(CRTglob.o)
 .text          0x00401460      0x3a0 c:/mingw/bin/../lib/gcc/mingw32/6.3.0/../../..\libmingw32.a(setargv.o)
                0x00401460                _setargv
 .text          0x00401800        0x0 c:/mingw/bin/../lib/gcc/mingw32/6.3.0/../../..\libmingw32.a(CRTfmode.o)
 .text          0x00401800      0x110 c:/mingw/bin/../lib/gcc/mingw32/6.3.0/../../..\libmingw32.a(cpu_features.o)
                0x00401800                __cpu_features_init
 .text          0x00401910        0x0 c:/mingw/bin/../lib/gcc/mingw32/6.3.0/../../..\libmingw32.a(CRT_fp10.o)
 .text          0x00401910        0x0 c:/mingw/bin/../lib/gcc/mingw32/6.3.0/../../..\libmingw32.a(txtmode.o)
 .text          0x00401910       0xa0 c:/mingw/bin/../lib/gcc/mingw32/6.3.0/../../..\libmingw32.a(gccmain.o)
                0x00401910                __do_global_dtors
                0x00401940                __do_global_ctors
                0x00401990                __main
 .text          0x004019b0       0xf0 c:/mingw/bin/../lib/gcc/mingw32/6.3.0/../../..\libmingw32.a(tlssup.o)
                0x00401a00                __dyn_tls_init@12
                0x00401a90                __tlregdtor
 .text          0x00401aa0      0x230 c:/mingw/bin/../lib/gcc/mingw32/6.3.0/../../..\libmingw32.a(tlsthrd.o)
                0x00401b00                ___w64_mingwthr_add_key_dtor
                0x00401b90                ___w64_mingwthr_remove_key_dtor
                0x00401c30                __mingw_TLScallback
 .text          0x00401cd0      0x310 c:/mingw/bin/../lib/gcc/mingw32/6.3.0/../../..\libmingw32.a(pseudo-reloc.o)
                0x00401e10                _pei386_runtime_relocator
 .text          0x00401fe0        0x0 c:/mingw/bin/../lib/gcc/mingw32/6.3.0/../../..\libmingw32.a(pseudo-reloc-list.o)
 .text          0x00401fe0        0x0 c:/mingw/bin/../lib/gcc/mingw32/6.3.0/../../..\libmingw32.a(crtst.o)
 .text          0x00401fe0       0x2c c:/mingw/bin/../lib/gcc/mingw32/6.3.0\libgcc.a(_chkstk_ms.o)
                0x00401fe0                __chkstk_ms
 .text          0x0040200c        0x0 c:/mingw/bin/../lib/gcc/mingw32/6.3.0\libgcc.a(_ctors.o)
 *fill*         0x0040200c        0x4 
 .text          0x00402010      0x140 c:/mingw/bin/../lib/gcc/mingw32/6.3.0\libgcc.a(_divdi3.o)
                0x00402010                __divdi3
 .text          0x00402150      0x120 c:/mingw/bin/../lib/gcc/mingw32/6.3.0\libgcc.a(_udivdi3.o)
                0x00402150                __udivdi3
 .text          0x00402270      0x150 c:/mingw/bin/../lib/gcc/mingw32/6.3.0\libgcc.a(_umoddi3.o)
                0x00402270                __umoddi3
 .text          0x004023c0        0x8 c:/mingw/bin/../lib/gcc/mingw32/6.3.0/../../..\libmoldname.a(dagwbs00047.o)
                0x004023c0                kbhit
 .text          0x004023c8        0x0 c:/mingw/bin/../lib/gcc/mingw32/6.3.0/../../..\libmoldname.a(dagwbh.o)
 .text          0x004023c8        0x0 c:/mingw/bin/../lib/gcc/mingw32/6.3.0/../../..\libmoldname.a(dagwbt.o)
 *fill*         0x004023c8        0x8 
 .text          0x004023d0       0x70 c:/mingw/bin/../lib/gcc/mingw32/6.3.0/../../..\libmingwex.a(fesetenv.o)
                0x004023d0                fesetenv
 .text          0x00402440       0x28 c:/mingw/bin/../lib/gcc/mingw32/6.3.0/../../..\libmingwex.a(cosf.o)
                0x00402440                cosf
 .text          0x00402468       0x28 c:/mingw/bin/../lib/gcc/mingw32/6.3.0/../../..\libmingwex.a(sinf.o)
                0x00402468                sinf
 .text          0x00402490       0x2c c:/mingw/bin/../lib/gcc/mingw32/6.3.0/../../..\libmingwex.a(ceilf.o)
                0x00402490                ceilf
 *fill*         0x004024bc        0x4 
 .text          0x004024c0       0x40 c:/mingw/bin/../lib/gcc/mingw32/6.3.0/../../..\libmingwex.a(fmax.o)
                0x004024c0                fmax
 .text          0x00402500       0x40 c:/mingw/bin/../lib/gcc/mingw32/6.3.0/../../..\libmingwex.a(fmaxf.o)
                0x00402500                fmaxf
 .text          0x00402540       0x20 c:/mingw/bin/../lib/gcc/mingw32/6.3.0/../../..\libmingwex.a(fmodf.o)
                0x00402540                fmodf
 .text          0x00402560       0x20 c:/mingw/bin/../lib/gcc/mingw32/6.3.0/../../..\libmingwex.a(fpclassifyf.o)
                0x00402560                __fpclassifyf
 .text          0x00402580       0x10 c:/mingw/bin/../lib/gcc/mingw32/6.3.0/../../..\libmingwex.a(log10f.o)
                0x00402580                log10f
 .text          0x00402590       0x10 c:/mingw/bin/../lib/gcc/mingw32/6.3.0/../../..\libmingwex.a(logf.o)
                0x00402590                logf
 .text          0x004025a0       0x14 c:/mingw/bin/../lib/gcc/mingw32/6.3.0/../../..\libmingwex.a(powf.o)
                0x004025a0                powf
 *fill*         0x004025b4        0xc 
 .text          0x004025c0       0x10 c:/mingw/bin/../lib/gcc/mingw32/6.3.0/../../..\libmingwex.a(rintf.o)
                0x004025c0                rintf
 .text          0x004025d0       0x28 c:/mingw/bin/../lib/gcc/mingw32/6.3.0/../../..\libmingwex.a(x87cvtf.o)
                0x004025d0                __x87cvtf
 .text          0x004025f8       0x58 c:/mingw/bin/../lib/gcc/mingw32/6.3.0/../../..\libmingwex.a(x87log.o)
                0x004025fc                __x87log_chk
                0x00402610                __x87log
 .text          0x00402650      0x12c c:/mingw/bin/../lib/gcc/mingw32/6.3.0/../../..\libmingwex.a(x87pow.o)
                0x00402650                __x87pow
 *fill*         0x0040277c        0x4 
 .text          0x00402780       0x30 c:/mingw/bin/../lib/gcc/mingw32/6.3.0/../../..\libmingwex.a(snprintf.o)
                0x00402780                snprintf
                0x00402780                __mingw_snprintf
 .text          0x004027b0       0x40 c:/mingw/bin/../lib/gcc/mingw32/6.3.0/../../..\libmingwex.a(vfprintf.o)
                0x004027b0                __mingw_vfprintf
 .text          0x004027f0       0x40 c:/mingw/bin/../lib/gcc/mingw32/6.3.0/../../..\libmingwex.a(vprintf.o)
                0x004027f0                __mingw_vprintf
 .text          0x00402830       0x80 c:/mingw/bin/../lib/gcc/mingw32/6.3.0/../../..\libmingwex.a(vsnprintf.o)
                0x00402830                __mingw_vsnprintf
                0x00402830                vsnprintf
 .text          0x004028b0       0x40 c:/mingw/bin/../lib/gcc/mingw32/6.3.0/../../..\libmingwex.a(vsprintf.o)
                0x004028b0                __mingw_vsprintf
 .text          0x004028f0     0x1080 c:/mingw/bin/../lib/gcc/mingw32/6.3.0/../../..\libmingwex.a(glob.o)
                0x00403820                __mingw_glob
                0x00403910                __mingw_globfree
 .text          0x00403970      0x400 c:/mingw/bin/../lib/gcc/mingw32/6.3.0/../../..\libmingwex.a(dirname.o)
                0x00403970                __mingw_dirname
 .text          0x00403d70      0x4f0 c:/mingw/bin/../lib/gcc/mingw32/6.3.0/../../..\libmingwex.a(dirent.o)
                0x00403ef0                __mingw_opendir
                0x004040b0                __mingw_readdir
                0x00404100                __mingw_closedir
                0x00404150                __mingw_rewinddir
                0x004041b0                __mingw_telldir
                0x004041e0                __mingw_seekdir
 .text          0x00404260        0x8 c:/mingw/bin/../lib/gcc/mingw32/6.3.0/../../..\libmingwex.a(strcasecmp.jmpstub.o)
                0x00404260                strcasecmp
 *fill*         0x00404268        0x8 
 .text          0x00404270     0x2b00 c:/mingw/bin/../lib/gcc/mingw32/6.3.0/../../..\libmingwex.a(pformat.o)
                0x00405e00                __mingw_pformat
 .text          0x00406d70        0x0 c:/mingw/bin/../lib/gcc/mingw32/6.3.0/../../..\libmingwex.a(varofmt.o)
 .text          0x00406d70      0x430 c:/mingw/bin/../lib/gcc/mingw32/6.3.0/../../..\libmingwex.a(mbrtowc.o)
                0x00406f00                mbrtowc
                0x00406fa0                mbsrtowcs
                0x00407110                mbrlen
 .text          0x004071a0      0x290 c:/mingw/bin/../lib/gcc/mingw32/6.3.0/../../..\libmingwex.a(wcrtomb.o)
                0x00407240                wcrtomb
                0x004072c0                wcsrtombs
 .text          0x00407430     0x1630 c:/mingw/bin/../lib/gcc/mingw32/6.3.0/../../..\libmingwex.a(gdtoa.o)
                0x00407430                __gdtoa
 .text          0x00408a60      0x160 c:/mingw/bin/../lib/gcc/mingw32/6.3.0/../../..\libmingwex.a(gmisc.o)
                0x00408a60                __rshift_D2A
                0x00408b80                __trailz_D2A
 .text          0x00408bc0      0x2d0 c:/mingw/bin/../lib/gcc/mingw32/6.3.0/../../..\libmingwex.a(dmisc.o)
                0x00408bc0                __rv_alloc_D2A
                0x00408c00                __nrv_alloc_D2A
                0x00408c80                __freedtoa
                0x00408ca0                __quorem_D2A
 .text          0x00408e90      0xbd0 c:/mingw/bin/../lib/gcc/mingw32/6.3.0/../../..\libmingwex.a(misc.o)
                0x00408fb0                __Balloc_D2A
                0x00409080                __Bfree_D2A
                0x004090f0                __multadd_D2A
                0x004091e0                __i2b_D2A
                0x00409210                __mult_D2A
                0x00409380                __pow5mult_D2A
                0x004094f0                __lshift_D2A
                0x00409610                __cmp_D2A
                0x00409660                __diff_D2A
                0x00409840                __b2d_D2A
                0x00409940                __d2b_D2A
                0x00409a30                __strcp_D2A
 .text          0x00409a60        0x8 c:/mingw/bin/../lib/gcc/mingw32/6.3.0/../../..\libmsvcrt.a(djpvbs01325.o)
                0x00409a60                wcstombs
 .text          0x00409a68        0x8 c:/mingw/bin/../lib/gcc/mingw32/6.3.0/../../..\libmsvcrt.a(djpvbs01308.o)
                0x00409a68                wcslen
 .text          0x00409a70        0x8 c:/mingw/bin/../lib/gcc/mingw32/6.3.0/../../..\libmsvcrt.a(djpvbs01284.o)
                0x00409a70                vfprintf
 .text          0x00409a78        0x8 c:/mingw/bin/../lib/gcc/mingw32/6.3.0/../../..\libmsvcrt.a(djpvbs01278.o)
                0x00409a78                toupper
 .text          0x00409a80        0x8 c:/mingw/bin/../lib/gcc/mingw32/6.3.0/../../..\libmsvcrt.a(djpvbs01277.o)
                0x00409a80                tolower
 .text          0x00409a88        0x8 c:/mingw/bin/../lib/gcc/mingw32/6.3.0/../../..\libmsvcrt.a(djpvbs01272.o)
                0x00409a88                time
 .text          0x00409a90        0x8 c:/mingw/bin/../lib/gcc/mingw32/6.3.0/../../..\libmsvcrt.a(djpvbs01269.o)
                0x00409a90                system
 .text          0x00409a98        0x8 c:/mingw/bin/../lib/gcc/mingw32/6.3.0/../../..\libmsvcrt.a(djpvbs01258.o)
                0x00409a98                strstr
 .text          0x00409aa0        0x8 c:/mingw/bin/../lib/gcc/mingw32/6.3.0/../../..\libmsvcrt.a(djpvbs01257.o)
                0x00409aa0                strspn
 .text          0x00409aa8        0x8 c:/mingw/bin/../lib/gcc/mingw32/6.3.0/../../..\libmsvcrt.a(djpvbs01253.o)
                0x00409aa8                strncpy
 .text          0x00409ab0        0x8 c:/mingw/bin/../lib/gcc/mingw32/6.3.0/../../..\libmsvcrt.a(djpvbs01252.o)
                0x00409ab0                strncmp
 .text          0x00409ab8        0x8 c:/mingw/bin/../lib/gcc/mingw32/6.3.0/../../..\libmsvcrt.a(djpvbs01249.o)
                0x00409ab8                strlen
 .text          0x00409ac0        0x8 c:/mingw/bin/../lib/gcc/mingw32/6.3.0/../../..\libmsvcrt.a(djpvbs01245.o)
                0x00409ac0                strcspn
 .text          0x00409ac8        0x8 c:/mingw/bin/../lib/gcc/mingw32/6.3.0/../../..\libmsvcrt.a(djpvbs01243.o)
                0x00409ac8                strcpy
 .text          0x00409ad0        0x8 c:/mingw/bin/../lib/gcc/mingw32/6.3.0/../../..\libmsvcrt.a(djpvbs01242.o)
                0x00409ad0                strcoll
 .text          0x00409ad8        0x8 c:/mingw/bin/../lib/gcc/mingw32/6.3.0/../../..\libmsvcrt.a(djpvbs01241.o)
                0x00409ad8                strcmp
 .text          0x00409ae0        0x8 c:/mingw/bin/../lib/gcc/mingw32/6.3.0/../../..\libmsvcrt.a(djpvbs01240.o)
                0x00409ae0                strchr
 .text          0x00409ae8        0x8 c:/mingw/bin/../lib/gcc/mingw32/6.3.0/../../..\libmsvcrt.a(djpvbs01236.o)
                0x00409ae8                sscanf
 .text          0x00409af0        0x8 c:/mingw/bin/../lib/gcc/mingw32/6.3.0/../../..\libmsvcrt.a(djpvbs01235.o)
                0x00409af0                srand
 .text          0x00409af8        0x8 c:/mingw/bin/../lib/gcc/mingw32/6.3.0/../../..\libmsvcrt.a(djpvbs01230.o)
                0x00409af8                sin
 .text          0x00409b00        0x8 c:/mingw/bin/../lib/gcc/mingw32/6.3.0/../../..\libmsvcrt.a(djpvbs01229.o)
                0x00409b00                signal
 .text          0x00409b08        0x8 c:/mingw/bin/../lib/gcc/mingw32/6.3.0/../../..\libmsvcrt.a(djpvbs01227.o)
                0x00409b08                setlocale
 .text          0x00409b10        0x8 c:/mingw/bin/../lib/gcc/mingw32/6.3.0/../../..\libmsvcrt.a(djpvbs01220.o)
                0x00409b10                realloc
 .text          0x00409b18        0x8 c:/mingw/bin/../lib/gcc/mingw32/6.3.0/../../..\libmsvcrt.a(djpvbs01218.o)
                0x00409b18                rand
 .text          0x00409b20        0x8 c:/mingw/bin/../lib/gcc/mingw32/6.3.0/../../..\libmsvcrt.a(djpvbs01215.o)
                0x00409b20                qsort
 .text          0x00409b28        0x8 c:/mingw/bin/../lib/gcc/mingw32/6.3.0/../../..\libmsvcrt.a(djpvbs01212.o)
                0x00409b28                puts
 .text          0x00409b30        0x8 c:/mingw/bin/../lib/gcc/mingw32/6.3.0/../../..\libmsvcrt.a(djpvbs01211.o)
                0x00409b30                putchar
 .text          0x00409b38        0x8 c:/mingw/bin/../lib/gcc/mingw32/6.3.0/../../..\libmsvcrt.a(djpvbs01207.o)
                0x00409b38                pow
 .text          0x00409b40        0x8 c:/mingw/bin/../lib/gcc/mingw32/6.3.0/../../..\libmsvcrt.a(djpvbs01204.o)
                0x00409b40                mktime
 .text          0x00409b48        0x8 c:/mingw/bin/../lib/gcc/mingw32/6.3.0/../../..\libmsvcrt.a(djpvbs01203.o)
                0x00409b48                memset
 .text          0x00409b50        0x8 c:/mingw/bin/../lib/gcc/mingw32/6.3.0/../../..\libmsvcrt.a(djpvbs01201.o)
                0x00409b50                memmove
 .text          0x00409b58        0x8 c:/mingw/bin/../lib/gcc/mingw32/6.3.0/../../..\libmsvcrt.a(djpvbs01199.o)
                0x00409b58                memcpy
 .text          0x00409b60        0x8 c:/mingw/bin/../lib/gcc/mingw32/6.3.0/../../..\libmsvcrt.a(djpvbs01194.o)
                0x00409b60                mbstowcs
 .text          0x00409b68        0x8 c:/mingw/bin/../lib/gcc/mingw32/6.3.0/../../..\libmsvcrt.a(djpvbs01187.o)
                0x00409b68                malloc
 .text          0x00409b70        0x8 c:/mingw/bin/../lib/gcc/mingw32/6.3.0/../../..\libmsvcrt.a(djpvbs01185.o)
                0x00409b70                log10
 .text          0x00409b78        0x8 c:/mingw/bin/../lib/gcc/mingw32/6.3.0/../../..\libmsvcrt.a(djpvbs01184.o)
                0x00409b78                log
 .text          0x00409b80        0x8 c:/mingw/bin/../lib/gcc/mingw32/6.3.0/../../..\libmsvcrt.a(djpvbs01183.o)
                0x00409b80                localtime
 .text          0x00409b88        0x8 c:/mingw/bin/../lib/gcc/mingw32/6.3.0/../../..\libmsvcrt.a(djpvbs01182.o)
                0x00409b88                localeconv
 .text          0x00409b90        0x8 c:/mingw/bin/../lib/gcc/mingw32/6.3.0/../../..\libmsvcrt.a(djpvbs01163.o)
                0x00409b90                isspace
 .text          0x00409b98        0x8 c:/mingw/bin/../lib/gcc/mingw32/6.3.0/../../..\libmsvcrt.a(djpvbs01161.o)
                0x00409b98                isprint
 .text          0x00409ba0        0x8 c:/mingw/bin/../lib/gcc/mingw32/6.3.0/../../..\libmsvcrt.a(djpvbs01147.o)
                0x00409ba0                getenv
 .text          0x00409ba8        0x8 c:/mingw/bin/../lib/gcc/mingw32/6.3.0/../../..\libmsvcrt.a(djpvbs01142.o)
                0x00409ba8                fwrite
 .text          0x00409bb0        0x8 c:/mingw/bin/../lib/gcc/mingw32/6.3.0/../../..\libmsvcrt.a(djpvbs01131.o)
                0x00409bb0                free
 .text          0x00409bb8        0x8 c:/mingw/bin/../lib/gcc/mingw32/6.3.0/../../..\libmsvcrt.a(djpvbs01126.o)
                0x00409bb8                fputc
 .text          0x00409bc0        0x8 c:/mingw/bin/../lib/gcc/mingw32/6.3.0/../../..\libmsvcrt.a(djpvbs01122.o)
                0x00409bc0                fopen
 .text          0x00409bc8        0x8 c:/mingw/bin/../lib/gcc/mingw32/6.3.0/../../..\libmsvcrt.a(djpvbs01111.o)
                0x00409bc8                fclose
 .text          0x00409bd0        0x8 c:/mingw/bin/../lib/gcc/mingw32/6.3.0/../../..\libmsvcrt.a(djpvbs01108.o)
                0x00409bd0                exit
 .text          0x00409bd8        0x8 c:/mingw/bin/../lib/gcc/mingw32/6.3.0/../../..\libmsvcrt.a(djpvbs01106.o)
                0x00409bd8                difftime
 .text          0x00409be0        0x8 c:/mingw/bin/../lib/gcc/mingw32/6.3.0/../../..\libmsvcrt.a(djpvbs01102.o)
                0x00409be0                clock
 .text          0x00409be8        0x8 c:/mingw/bin/../lib/gcc/mingw32/6.3.0/../../..\libmsvcrt.a(djpvbs01099.o)
                0x00409be8                ceil
 .text          0x00409bf0        0x8 c:/mingw/bin/../lib/gcc/mingw32/6.3.0/../../..\libmsvcrt.a(djpvbs01098.o)
                0x00409bf0                calloc
 .text          0x00409bf8        0x8 c:/mingw/bin/../lib/gcc/mingw32/6.3.0/../../..\libmsvcrt.a(djpvbs01093.o)
                0x00409bf8                atoi
 .text          0x00409c00        0x0 c:/mingw/bin/../lib/gcc/mingw32/6.3.0/../../..\libmsvcrt.a(djpvbs01091.o)
 .text          0x00409c00        0x8 c:/mingw/bin/../lib/gcc/mingw32/6.3.0/../../..\libmsvcrt.a(djpvbs01083.o)
                0x00409c00                abort
 .text          0x00409c08        0x8 c:/mingw/bin/../lib/gcc/mingw32/6.3.0/../../..\libmsvcrt.a(djpvbs00803.o)
                0x00409c08                _stricmp
 .text          0x00409c10        0x8 c:/mingw/bin/../lib/gcc/mingw32/6.3.0/../../..\libmsvcrt.a(djpvbs00753.o)
                0x00409c10                _setmode
 .text          0x00409c18        0x0 c:/mingw/bin/../lib/gcc/mingw32/6.3.0/../../..\libmsvcrt.a(djpvbs00698.o)
 .text          0x00409c18        0x0 c:/mingw/bin/../lib/gcc/mingw32/6.3.0/../../..\libmsvcrt.a(djpvbs00689.o)
 .text          0x00409c18        0x8 c:/mingw/bin/../lib/gcc/mingw32/6.3.0/../../..\libmsvcrt.a(djpvbs00422.o)
                0x00409c18                _isctype
 .text          0x00409c20        0x0 c:/mingw/bin/../lib/gcc/mingw32/6.3.0/../../..\libmsvcrt.a(djpvbs00417.o)
 .text          0x00409c20        0x8 c:/mingw/bin/../lib/gcc/mingw32/6.3.0/../../..\libmsvcrt.a(djpvbs00379.o)
                0x00409c20                _getch
 .text          0x00409c28        0x8 c:/mingw/bin/../lib/gcc/mingw32/6.3.0/../../..\libmsvcrt.a(djpvbs00350.o)
                0x00409c28                _fullpath
 .text          0x00409c30        0x8 c:/mingw/bin/../lib/gcc/mingw32/6.3.0/../../..\libmsvcrt.a(djpvbs00285.o)
                0x00409c30                _errno
 .text          0x00409c38        0x8 c:/mingw/bin/../lib/gcc/mingw32/6.3.0/../../..\libmsvcrt.a(djpvbs00219.o)
                0x00409c38                _cexit
 .text          0x00409c40        0x8 c:/mingw/bin/../lib/gcc/mingw32/6.3.0/../../..\libmsvcrt.a(djpvbs00133.o)
                0x00409c40                __p__fmode
 .text          0x00409c48        0x8 c:/mingw/bin/../lib/gcc/mingw32/6.3.0/../../..\libmsvcrt.a(djpvbs00131.o)
                0x00409c48                __p__environ
 .text          0x00409c50        0x0 c:/mingw/bin/../lib/gcc/mingw32/6.3.0/../../..\libmsvcrt.a(djpvbs00119.o)
 .text          0x00409c50        0x8 c:/mingw/bin/../lib/gcc/mingw32/6.3.0/../../..\libmsvcrt.a(djpvbs00088.o)
                0x00409c50                __getmainargs
 .text          0x00409c58        0x0 c:/mingw/bin/../lib/gcc/mingw32/6.3.0/../../..\libmsvcrt.a(djpvbh.o)
 .text          0x00409c58        0x0 c:/mingw/bin/../lib/gcc/mingw32/6.3.0/../../..\libmsvcrt.a(djpvbt.o)
 .text          0x00409c58        0x8 c:/mingw/bin/../lib/gcc/mingw32/6.3.0/../../..\libkernel32.a(dujcs01267.o)
                0x00409c58                WriteFile@20
 .text          0x00409c60        0x8 c:/mingw/bin/../lib/gcc/mingw32/6.3.0/../../..\libkernel32.a(dujcs01247.o)
                0x00409c60                WideCharToMultiByte@32
 .text          0x00409c68        0x8 c:/mingw/bin/../lib/gcc/mingw32/6.3.0/../../..\libkernel32.a(dujcs01215.o)
                0x00409c68                VirtualQuery@12
 .text          0x00409c70        0x8 c:/mingw/bin/../lib/gcc/mingw32/6.3.0/../../..\libkernel32.a(dujcs01213.o)
                0x00409c70                VirtualProtect@16
 .text          0x00409c78        0x8 c:/mingw/bin/../lib/gcc/mingw32/6.3.0/../../..\libkernel32.a(dujcs01173.o)
                0x00409c78                TlsGetValue@4
 .text          0x00409c80        0x8 c:/mingw/bin/../lib/gcc/mingw32/6.3.0/../../..\libkernel32.a(dujcs01152.o)
                0x00409c80                Sleep@4
 .text          0x00409c88        0x8 c:/mingw/bin/../lib/gcc/mingw32/6.3.0/../../..\libkernel32.a(dujcs01140.o)
                0x00409c88                SetUnhandledExceptionFilter@4
 .text          0x00409c90        0x8 c:/mingw/bin/../lib/gcc/mingw32/6.3.0/../../..\libkernel32.a(dujcs01037.o)
                0x00409c90                SetConsoleMode@8
 .text          0x00409c98        0x8 c:/mingw/bin/../lib/gcc/mingw32/6.3.0/../../..\libkernel32.a(dujcs01014.o)
                0x00409c98                SetCommTimeouts@8
 .text          0x00409ca0        0x8 c:/mingw/bin/../lib/gcc/mingw32/6.3.0/../../..\libkernel32.a(dujcs01013.o)
                0x00409ca0                SetCommState@8
 .text          0x00409ca8        0x8 c:/mingw/bin/../lib/gcc/mingw32/6.3.0/../../..\libkernel32.a(dujcs00947.o)
                0x00409ca8                ReadFile@20
 .text          0x00409cb0        0x8 c:/mingw/bin/../lib/gcc/mingw32/6.3.0/../../..\libkernel32.a(dujcs00860.o)
                0x00409cb0                MultiByteToWideChar@24
 .text          0x00409cb8        0x8 c:/mingw/bin/../lib/gcc/mingw32/6.3.0/../../..\libkernel32.a(dujcs00817.o)
                0x00409cb8                LoadLibraryA@4
 .text          0x00409cc0        0x8 c:/mingw/bin/../lib/gcc/mingw32/6.3.0/../../..\libkernel32.a(dujcs00814.o)
                0x00409cc0                LeaveCriticalSection@4
 .text          0x00409cc8        0x8 c:/mingw/bin/../lib/gcc/mingw32/6.3.0/../../..\libkernel32.a(dujcs00763.o)
                0x00409cc8                IsDBCSLeadByteEx@8
 .text          0x00409cd0        0x8 c:/mingw/bin/../lib/gcc/mingw32/6.3.0/../../..\libkernel32.a(dujcs00744.o)
                0x00409cd0                InterlockedExchange@8
 .text          0x00409cd8        0x8 c:/mingw/bin/../lib/gcc/mingw32/6.3.0/../../..\libkernel32.a(dujcs00734.o)
                0x00409cd8                InitializeCriticalSection@4
 .text          0x00409ce0        0x8 c:/mingw/bin/../lib/gcc/mingw32/6.3.0/../../..\libkernel32.a(dujcs00608.o)
                0x00409ce0                GetStdHandle@4
 .text          0x00409ce8        0x8 c:/mingw/bin/../lib/gcc/mingw32/6.3.0/../../..\libkernel32.a(dujcs00577.o)
                0x00409ce8                GetProcAddress@8
 .text          0x00409cf0        0x8 c:/mingw/bin/../lib/gcc/mingw32/6.3.0/../../..\libkernel32.a(dujcs00529.o)
                0x00409cf0                GetModuleHandleA@4
 .text          0x00409cf8        0x8 c:/mingw/bin/../lib/gcc/mingw32/6.3.0/../../..\libkernel32.a(dujcs00510.o)
                0x00409cf8                GetLastError@0
 .text          0x00409d00        0x8 c:/mingw/bin/../lib/gcc/mingw32/6.3.0/../../..\libkernel32.a(dujcs00426.o)
                0x00409d00                GetConsoleMode@8
 .text          0x00409d08        0x8 c:/mingw/bin/../lib/gcc/mingw32/6.3.0/../../..\libkernel32.a(dujcs00388.o)
                0x00409d08                GetCommandLineA@0
 .text          0x00409d10        0x8 c:/mingw/bin/../lib/gcc/mingw32/6.3.0/../../..\libkernel32.a(dujcs00386.o)
                0x00409d10                GetCommState@8
 .text          0x00409d18        0x8 c:/mingw/bin/../lib/gcc/mingw32/6.3.0/../../..\libkernel32.a(dujcs00352.o)
                0x00409d18                FreeLibrary@4
 .text          0x00409d20        0x8 c:/mingw/bin/../lib/gcc/mingw32/6.3.0/../../..\libkernel32.a(dujcs00321.o)
                0x00409d20                FindNextFileA@8
 .text          0x00409d28        0x8 c:/mingw/bin/../lib/gcc/mingw32/6.3.0/../../..\libkernel32.a(dujcs00304.o)
                0x00409d28                FindFirstFileA@8
 .text          0x00409d30        0x8 c:/mingw/bin/../lib/gcc/mingw32/6.3.0/../../..\libkernel32.a(dujcs00300.o)
                0x00409d30                FindClose@4
 .text          0x00409d38        0x8 c:/mingw/bin/../lib/gcc/mingw32/6.3.0/../../..\libkernel32.a(dujcs00279.o)
                0x00409d38                ExitProcess@4
 .text          0x00409d40        0x8 c:/mingw/bin/../lib/gcc/mingw32/6.3.0/../../..\libkernel32.a(dujcs00236.o)
                0x00409d40                EnterCriticalSection@4
 .text          0x00409d48        0x8 c:/mingw/bin/../lib/gcc/mingw32/6.3.0/../../..\libkernel32.a(dujcs00207.o)
                0x00409d48                DeleteCriticalSection@4
 .text          0x00409d50        0x8 c:/mingw/bin/../lib/gcc/mingw32/6.3.0/../../..\libkernel32.a(dujcs00135.o)
                0x00409d50                CreateFileA@28
 .text          0x00409d58        0x8 c:/mingw/bin/../lib/gcc/mingw32/6.3.0/../../..\libkernel32.a(dujcs00082.o)
                0x00409d58                CloseHandle@4
 .text          0x00409d60        0x0 c:/mingw/bin/../lib/gcc/mingw32/6.3.0/../../..\libkernel32.a(dujch.o)
 .text          0x00409d60        0x0 c:/mingw/bin/../lib/gcc/mingw32/6.3.0/../../..\libkernel32.a(dujct.o)
 .text          0x00409d60        0x8 c:/mingw/bin/../lib/gcc/mingw32/6.3.0/../../..\libmoldname.a(dagwbs00082.o)
                0x00409d60                stricoll
 .text          0x00409d68        0x8 c:/mingw/bin/../lib/gcc/mingw32/6.3.0/../../..\libmoldname.a(dagwbs00080.o)
                0x00409d68                strdup
 .text          0x00409d70        0x0 c:/mingw/bin/../lib/gcc/mingw32/6.3.0/crtend.o
 *(SORT(.text$*))
 .text$Akip1160ComPortToNode
                0x00409d70       0x80 build/akip1160_mcal.o
                0x00409d70                Akip1160ComPortToNode
 .text$Akip1160ConfigToStr
                0x00409df0       0xb8 build/akip1160_diag.o
                0x00409df0                Akip1160ConfigToStr
 .text$Akip1160GetConfig
                0x00409ea8       0x84 build/akip1160_mcal.o
                0x00409ea8                Akip1160GetConfig
 .text$Akip1160GetNode
                0x00409f2c       0x80 build/akip1160_mcal.o
                0x00409f2c                Akip1160GetNode
 .text$Akip1160IsValidConfig
                0x00409fac       0x50 build/akip1160_mcal.o
                0x00409fac                Akip1160IsValidConfig
 .text$Akip1160NodeToStr
                0x00409ffc       0x8c build/akip1160_diag.o
                0x00409ffc                Akip1160NodeToStr
 .text$ArrayToAsciiStr
                0x0040a088       0x58 build/array_diag.o
                0x0040a088                ArrayToAsciiStr
 .text$ArrayToStr
                0x0040a0e0       0xc4 build/array_diag.o
                0x0040a0e0                ArrayToStr
 .text$ArrayU8ToBitStr
                0x0040a1a4       0x98 build/array_diag.o
                0x0040a1a4                ArrayU8ToBitStr
 .text$AsciiChar2Dec
                0x0040a23c       0x44 build/convert.o
                0x0040a23c                AsciiChar2Dec
 .text$AsciiChar2HexNibble
                0x0040a280       0xd4 build/convert.o
                0x0040a280                AsciiChar2HexNibble
 .text$BigValToStr
                0x0040a354       0x34 build/common_diag.o
                0x0040a354                BigValToStr
 .text$BitRateToStr
                0x0040a388       0x48 build/common_diag.o
                0x0040a388                BitRateToStr
 .text$BitToAsterisk
                0x0040a3d0       0x28 build/common_diag.o
                0x0040a3d0                BitToAsterisk
 .text$BitToStr
                0x0040a3f8       0x34 build/bit_diag.o
                0x0040a3f8                BitToStr
 .text$Bits2Bytes
                0x0040a42c       0x3c build/data_utils.o
                0x0040a42c                Bits2Bytes
 .text$BoolToOnOff
                0x0040a468       0x48 build/common_diag.o
                0x0040a468                BoolToOnOff
 .text$ByteNameToStr
                0x0040a4b0       0x28 build/byte_diag.o
                0x0040a4b0                ByteNameToStr
 .text$ByteRateToStr
                0x0040a4d8       0x50 build/common_diag.o
                0x0040a4d8                ByteRateToStr
 .text$ByteToStr
                0x0040a528       0x3c build/common_diag.o
                0x0040a528                ByteToStr
 .text$CliCmdInfoGet
                0x0040a564       0xc8 build/cli_drv.o
                0x0040a564                CliCmdInfoGet
 .text$CliCmdToStr
                0x0040a62c       0xe0 build/cli_diag.o
                0x0040a62c                CliCmdToStr
 .text$CliConfigToStr
                0x0040a70c       0xf4 build/cli_diag.o
                0x0040a70c                CliConfigToStr
 .text$CliGetConfig
                0x0040a800       0x98 build/cli_drv.o
                0x0040a800                CliGetConfig
 .text$CliGetNode
                0x0040a898       0x80 build/cli_drv.o
                0x0040a898                CliGetNode
 .text$CliIsValidConfig
                0x0040a918       0x90 build/cli_drv.o
 .text$CliNodeToStr
                0x0040a9a8      0x104 build/cli_diag.o
                0x0040a9a8                CliNodeToStr
 .text$ClkSrcToStr
                0x0040aaac       0x40 build/clock_diag.o
                0x0040aaac                ClkSrcToStr
 .text$ClockBusToStr
                0x0040aaec       0x64 build/clock_diag.o
                0x0040aaec                ClockBusToStr
 .text$ClockConfigToStr
                0x0040ab50      0x1a4 build/clock_diag.o
                0x0040ab50                ClockConfigToStr
 .text$ClockGetInfo
                0x0040acf4       0x1c build/clock_mcal.o
                0x0040acf4                ClockGetInfo
 .text$ClockMuxToStr
                0x0040ad10       0x4c build/clock_diag.o
                0x0040ad10                ClockMuxToStr
 .text$ClockSettingToStr
                0x0040ad5c       0x7c build/clock_diag.o
                0x0040ad5c                ClockSettingToStr
 .text$ClockSourcToHz
                0x0040add8       0x6c build/clock_general.o
                0x0040add8                ClockSourcToHz
 .text$CmdRetToStr
                0x0040ae44       0x30 build/win_utils.o
 .text$ConnectivityDirectionToStr
                0x0040ae74       0x54 build/connectivity_diag.o
                0x0040ae74                ConnectivityDirectionToStr
 .text$ControlModeToStr
                0x0040aec8       0x54 build/control_diag.o
                0x0040aec8                ControlModeToStr
 .text$ControlPermissionToStr
                0x0040af1c      0x230 build/control_diag.o
                0x0040af1c                ControlPermissionToStr
 .text$CsvInputToStr
                0x0040b14c       0x54 build/csv_diag.o
                0x0040b14c                CsvInputToStr
 .text$CsvNodeDiag
                0x0040b1a0       0x44 build/csv_diag.o
                0x0040b1a0                CsvNodeDiag
 .text$CsvNodeToStr
                0x0040b1e4      0x2b0 build/csv_diag.o
                0x0040b1e4                CsvNodeToStr
 .text$CsvStateToStr
                0x0040b494       0x6c build/csv_diag.o
                0x0040b494                CsvStateToStr
 .text$DataToValStrBuff
                0x0040b500      0x64c build/storage_diag.o
                0x0040b500                DataToValStrBuff
 .text$DateToStr
                0x0040bb4c       0x70 build/time_diag.o
                0x0040bb4c                DateToStr
 .text$DateToStrShort
                0x0040bbbc       0x44 build/time_diag.o
                0x0040bbbc                DateToStrShort
 .text$DoubleToStr
                0x0040bc00      0x2b8 build/num_to_str.o
                0x0040bc00                DoubleToStr
 .text$ErrValue2LogLevel
                0x0040beb8       0x34 build/log.o
                0x0040beb8                ErrValue2LogLevel
 .text$FacilityToStr
                0x0040beec       0xb8 build/system_diag.o
                0x0040beec                FacilityToStr
 .text$FloatBigToStr
                0x0040bfa4      0x360 build/float_diag.o
                0x0040bfa4                FloatBigToStr
 .text$FloatDataToStr
                0x0040c304       0x48 build/common_diag.o
                0x0040c304                FloatDataToStr
 .text$FloatFixToStr
                0x0040c34c       0x80 build/rational_num_diag.o
                0x0040c34c                FloatFixToStr
 .text$FloatToStr
                0x0040c3cc       0x64 build/float_diag.o
                0x0040c3cc                FloatToStr
 .text$FlowCtrlToStr
                0x0040c430       0x88 build/protocol_diag.o
                0x0040c430                FlowCtrlToStr
 .text$HAL_GetTick
                0x0040c4b8       0x1c build/clock_mcal.o
                0x0040c4b8                HAL_GetTick
 .text$HexQWord2Str
                0x0040c4d4       0x30 build/num_to_str.o
                0x0040c4d4                HexQWord2Str
 .text$HexQWordRevToStr
                0x0040c504       0x64 build/num_to_str.o
                0x0040c504                HexQWordRevToStr
 .text$HexQWordToStr
                0x0040c568       0x48 build/num_to_str.o
                0x0040c568                HexQWordToStr
 .text$HexWordToStr
                0x0040c5b0       0x3c build/common_diag.o
                0x0040c5b0                HexWordToStr
 .text$IfBitOrderToStr
                0x0040c5ec       0x48 build/interfaces_diag.o
                0x0040c5ec                IfBitOrderToStr
 .text$IfBusRoleToStr
                0x0040c634       0x48 build/interfaces_diag.o
                0x0040c634                IfBusRoleToStr
 .text$InterfaceComPortToInterface
                0x0040c67c       0x44 build/interface_drv.o
                0x0040c67c                InterfaceComPortToInterface
 .text$InterfaceNameToInfo
                0x0040c6c0       0x78 build/interfaces_diag.o
                0x0040c6c0                InterfaceNameToInfo
 .text$InterfaceNameToStr
                0x0040c738       0x40 build/interfaces_diag.o
                0x0040c738                InterfaceNameToStr
 .text$InterfaceToStr
                0x0040c778       0x28 build/interfaces_diag.o
                0x0040c778                InterfaceToStr
 .text$InterfaceTypeToStr
                0x0040c7a0       0xb0 build/interfaces_diag.o
                0x0040c7a0                InterfaceTypeToStr
 .text$InterfaceTypeToStrShort
                0x0040c850       0x9c build/interfaces_diag.o
                0x0040c850                InterfaceTypeToStrShort
 .text$LOG_CRITICAL
                0x0040c8ec       0x4c build/log.o
                0x0040c8ec                LOG_CRITICAL
 .text$LOG_DEBUG
                0x0040c938       0x4c build/log.o
                0x0040c938                LOG_DEBUG
 .text$LOG_ERROR
                0x0040c984       0x4c build/log.o
                0x0040c984                LOG_ERROR
 .text$LOG_INFO
                0x0040c9d0       0x4c build/log.o
                0x0040c9d0                LOG_INFO
 .text$LOG_NOTICE
                0x0040ca1c       0x4c build/log.o
                0x0040ca1c                LOG_NOTICE
 .text$LOG_PARN
                0x0040ca68       0x4c build/log.o
                0x0040ca68                LOG_PARN
 .text$LOG_PROTECTED
                0x0040cab4       0x4c build/log.o
                0x0040cab4                LOG_PROTECTED
 .text$LOG_TRACE
                0x0040cb00       0x4c build/log.o
                0x0040cb00                LOG_TRACE
 .text$LOG_WARNING
                0x0040cb4c       0x4c build/log.o
                0x0040cb4c                LOG_WARNING
 .text$LogEndOfLineToStr
                0x0040cb98       0x6c build/log_diag.o
                0x0040cb98                LogEndOfLineToStr
 .text$LogGetConfig
                0x0040cc04       0x94 build/log.o
                0x0040cc04                LogGetConfig
 .text$LogGetNode
                0x0040cc98       0x94 build/log.o
                0x0040cc98                LogGetNode
 .text$Mask32ToStr
                0x0040cd2c      0x174 build/protocol_diag.o
                0x0040cd2c                Mask32ToStr
 .text$MathParityToStr
                0x0040cea0       0x40 build/math_diag.o
                0x0040cea0                MathParityToStr
 .text$McalMoveModeToStr
                0x0040cee0       0x54 build/mcal_diag.o
                0x0040cee0                McalMoveModeToStr
 .text$McalOkCntToRes
                0x0040cf34       0x20 build/mcal_diag.o
                0x0040cf34                McalOkCntToRes
 .text$MsToStr  0x0040cf54       0x44 build/time_diag.o
                0x0040cf54                MsToStr
 .text$NumberParserFsm2Str
                0x0040cf98       0xfc build/convert_diag.o
                0x0040cf98                NumberParserFsm2Str
 .text$NumberParserState2Str
                0x0040d094       0x74 build/convert_diag.o
                0x0040d094                NumberParserState2Str
 .text$OffSetToStr
                0x0040d108       0x80 build/debug_info.o
                0x0040d108                OffSetToStr
 .text$OkToStr  0x0040d188       0x44 build/common_diag.o
                0x0040d188                OkToStr
 .text$OnOffToStr
                0x0040d1cc       0x48 build/common_diag.o
                0x0040d1cc                OnOffToStr
 .text$ProgType2str
                0x0040d214       0x6c build/system_diag.o
                0x0040d214                ProgType2str
 .text$ProgressFloatToStr
                0x0040d280       0xb8 build/common_diag.o
                0x0040d280                ProgressFloatToStr
 .text$ProgressRealToStr
                0x0040d338       0xb8 build/common_diag.o
                0x0040d338                ProgressRealToStr
 .text$ProgressToStr
                0x0040d3f0       0x6c build/common_diag.o
                0x0040d3f0                ProgressToStr
 .text$ProtocolFrameToStr
                0x0040d45c       0x1c build/protocol_diag.o
                0x0040d45c                ProtocolFrameToStr
 .text$ProtocolRxStateToStr
                0x0040d478       0x90 build/protocol_diag.o
                0x0040d478                ProtocolRxStateToStr
 .text$QWordToStr
                0x0040d508       0x38 build/common_diag.o
                0x0040d508                QWordToStr
 .text$RegisterDiag
                0x0040d540       0x54 build/mcal_diag.o
                0x0040d540                RegisterDiag
 .text$ResToLogLevel
                0x0040d594       0x2c build/log.o
                0x0040d594                ResToLogLevel
 .text$ResToStr
                0x0040d5c0       0x1c build/common_diag.o
                0x0040d5c0                ResToStr
 .text$RfFreqToStr
                0x0040d5dc       0x64 build/common_diag.o
                0x0040d5dc                RfFreqToStr
 .text$SchedulerGetNode
                0x0040d640       0x84 build/scheduler_mcal.o
                0x0040d640                SchedulerGetNode
 .text$SchedulerNodeToStr
                0x0040d6c4       0xb0 build/scheduler_diag.o
                0x0040d6c4                SchedulerNodeToStr
 .text$SchedulerNunToTaskNode
                0x0040d774       0x60 build/scheduler_mcal.o
                0x0040d774                SchedulerNunToTaskNode
 .text$SchedulerTaskToStr
                0x0040d7d4       0xbc build/scheduler_diag.o
                0x0040d7d4                SchedulerTaskToStr
 .text$SecToStr
                0x0040d890      0x168 build/time_diag.o
                0x0040d890                SecToStr
 .text$SerialPortConfigToStr
                0x0040d9f8       0xe8 build/serial_port_diag.o
                0x0040d9f8                SerialPortConfigToStr
 .text$SerialPortErrorToStr
                0x0040dae0       0x64 build/serial_port_diag.o
                0x0040dae0                SerialPortErrorToStr
 .text$SerialPortGetConfig
                0x0040db44       0x98 build/serial_port.o
                0x0040db44                SerialPortGetConfig
 .text$SerialPortGetNode
                0x0040dbdc       0x94 build/serial_port.o
                0x0040dbdc                SerialPortGetNode
 .text$SerialPortIsValidConfig
                0x0040dc70       0xe0 build/serial_port.o
 .text$SerialPortNodeToStr
                0x0040dd50      0x1a4 build/serial_port_diag.o
                0x0040dd50                SerialPortNodeToStr
 .text$SerialPortNumToNode
                0x0040def4       0x98 build/serial_port.o
                0x0040def4                SerialPortNumToNode
 .text$Sign2Str
                0x0040df8c       0x48 build/convert_diag.o
                0x0040df8c                Sign2Str
 .text$StorageAccessToStr
                0x0040dfd4       0x6c build/storage_diag.o
                0x0040dfd4                StorageAccessToStr
 .text$StorageDataToValueStr
                0x0040e040       0xd8 build/storage_diag.o
                0x0040e040                StorageDataToValueStr
 .text$StorageFrameHeaderToStr
                0x0040e118      0x110 build/storage_diag.o
                0x0040e118                StorageFrameHeaderToStr
 .text$StorageGetNode
                0x0040e228       0x1c build/storage.o
                0x0040e228                StorageGetNode
 .text$StorageIdToStr
                0x0040e244       0x78 build/storage_diag.o
                0x0040e244                StorageIdToStr
 .text$StorageIsValidParam
                0x0040e2bc      0x1d4 build/storage.o
                0x0040e2bc                StorageIsValidParam
 .text$StorageItemToStr
                0x0040e490      0x1fc build/storage_diag.o
                0x0040e490                StorageItemToStr
 .text$StoragePhysicalQuantityToStr
                0x0040e68c      0x19c build/storage_diag.o
                0x0040e68c                StoragePhysicalQuantityToStr
 .text$StorageScaleToStr
                0x0040e828       0xf8 build/storage_diag.o
                0x0040e828                StorageScaleToStr
 .text$StorageTypeToStr
                0x0040e920       0xe8 build/storage_diag.o
                0x0040e920                StorageTypeToStr
 .text$StorageUnitsToStr
                0x0040ea08      0x348 build/storage_diag.o
                0x0040ea08                StorageUnitsToStr
 .text$StringReaderGetConfig
                0x0040ed50       0x98 build/string_reader.o
                0x0040ed50                StringReaderGetConfig
 .text$StringReaderGetNode
                0x0040ede8       0x88 build/string_reader.o
                0x0040ede8                StringReaderGetNode
 .text$StringReaderInterfaceToNode
                0x0040ee70       0x84 build/string_reader.o
                0x0040ee70                StringReaderInterfaceToNode
 .text$SuperCycleGetConfig
                0x0040eef4       0x84 build/super_cycle.o
                0x0040eef4                SuperCycleGetConfig
 .text$SuperCycleGetNode
                0x0040ef78       0x84 build/super_cycle.o
                0x0040ef78                SuperCycleGetNode
 .text$SuperCycleIsValidConfig
                0x0040effc       0x44 build/super_cycle.o
 .text$SymbolToStr
                0x0040f040       0x68 build/convert_diag.o
                0x0040f040                SymbolToStr
 .text$TaskNumToName
                0x0040f0a8       0x58 build/scheduler_diag.o
                0x0040f0a8                TaskNumToName
 .text$TestNodeToStr
                0x0040f100       0x7c build/unit_test_diag.o
                0x0040f100                TestNodeToStr
 .text$TestResToStr
                0x0040f17c       0x34 build/unit_test_diag.o
                0x0040f17c                TestResToStr
 .text$TimeDate2CsvStr
                0x0040f1b0       0xb8 build/time_diag.o
                0x0040f1b0                TimeDate2CsvStr
 .text$TimeDateToStrExt
                0x0040f268      0x1a0 build/time_diag.o
                0x0040f268                TimeDateToStrExt
 .text$TimeDateToStrShort
                0x0040f408       0x54 build/time_diag.o
                0x0040f408                TimeDateToStrShort
 .text$TimeGetConfig
                0x0040f45c       0x8c build/time_mcal.o
                0x0040f45c                TimeGetConfig
 .text$TimeGetNode
                0x0040f4e8       0x80 build/time_mcal.o
                0x0040f4e8                TimeGetNode
 .text$TimeMonthToStr
                0x0040f568       0xe4 build/time_diag.o
                0x0040f568                TimeMonthToStr
 .text$TimeMsToStr
                0x0040f64c       0x3c build/time_diag.o
                0x0040f64c                TimeMsToStr
 .text$TimeSrcToStr
                0x0040f688       0xcc build/time_diag.o
                0x0040f688                TimeSrcToStr
 .text$TimeToStr
                0x0040f754       0x80 build/time_diag.o
                0x0040f754                TimeToStr
 .text$TimeToStrShort
                0x0040f7d4       0x44 build/time_diag.o
                0x0040f7d4                TimeToStrShort
 .text$TimerArtetyToStr
                0x0040f818       0x44 build/timer_calc_diag.o
                0x0040f818                TimerArtetyToStr
 .text$U16DecToStr
                0x0040f85c       0x48 build/common_diag.o
                0x0040f85c                U16DecToStr
 .text$U16ToStr
                0x0040f8a4       0x48 build/common_diag.o
                0x0040f8a4                U16ToStr
 .text$U32DecToStr
                0x0040f8ec       0x44 build/common_diag.o
                0x0040f8ec                U32DecToStr
 .text$U32ToStr
                0x0040f930       0x44 build/common_diag.o
                0x0040f930                U32ToStr
 .text$U8DecToStr
                0x0040f974       0x48 build/common_diag.o
                0x0040f974                U8DecToStr
 .text$U8ToStr  0x0040f9bc       0x48 build/common_diag.o
                0x0040f9bc                U8ToStr
 .text$UnitsToPhysicalQuantityInfo
                0x0040fa04       0x6c build/sensitivity.o
                0x0040fa04                UnitsToPhysicalQuantityInfo
 .text$UnitsToStr
                0x0040fa70       0x68 build/sensitivity_diag.o
                0x0040fa70                UnitsToStr
 .text$UnsignedBigEndianToStr
                0x0040fad8      0x174 build/common_diag.o
                0x0040fad8                UnsignedBigEndianToStr
 .text$UpTimeMsToStr
                0x0040fc4c      0x250 build/time_diag.o
                0x0040fc4c                UpTimeMsToStr
 .text$UpTimeSecToStr
                0x0040fe9c       0x88 build/time_diag.o
                0x0040fe9c                UpTimeSecToStr
 .text$UsecToStr
                0x0040ff24      0x210 build/time_diag.o
                0x0040ff24                UsecToStr
 .text$WriterGetConfig
                0x00410134       0x84 build/writer.o
                0x00410134                WriterGetConfig
 .text$WriterGetNode
                0x004101b8       0x88 build/writer.o
                0x004101b8                WriterGetNode
 .text$WriterGetNodeByInterface
                0x00410240       0x84 build/writer.o
                0x00410240                WriterGetNodeByInterface
 .text$WriterIsValidConfig
                0x004102c4       0x80 build/writer.o
 .text$YesNoToStr
                0x00410344       0x48 build/common_diag.o
                0x00410344                YesNoToStr
 .text$__strcasecmp
                0x0041038c       0x80 build/str_utils.o
                0x0041038c                __strcasecmp
 .text$a2d      0x0041040c       0x28 build/oprintf.o
 .text$a2i      0x00410434       0x94 build/oprintf.o
 .text$add_to_failed
                0x004104c8       0x2c build/unit_test.o
 .text$adjust_bits_u8
                0x004104f4      0x130 build/bit_utils.o
                0x004104f4                adjust_bits_u8
 .text$akip1160_control
                0x00410624       0xe8 build/akip1160_mcal.o
                0x00410624                akip1160_control
 .text$akip1160_current_set
                0x0041070c       0xcc build/akip1160_mcal.o
                0x0041070c                akip1160_current_set
 .text$akip1160_diag
                0x004107d8       0x14 build/akip1160_diag.o
                0x004107d8                akip1160_diag
 .text$akip1160_diag_command
                0x004107ec       0xd4 build/akip1160_commands.o
                0x004107ec                akip1160_diag_command
 .text$akip1160_diag_one
                0x004108c0       0x18 build/akip1160_diag.o
                0x004108c0                akip1160_diag_one
 .text$akip1160_get_cnt
                0x004108d8       0x48 build/akip1160_config.o
                0x004108d8                akip1160_get_cnt
 .text$akip1160_init_command
                0x00410920       0x84 build/akip1160_commands.o
                0x00410920                akip1160_init_command
 .text$akip1160_init_common
                0x004109a4       0x6c build/akip1160_mcal.o
                0x004109a4                akip1160_init_common
 .text$akip1160_init_custom
                0x00410a10       0x30 build/akip1160_mcal.o
                0x00410a10                akip1160_init_custom
 .text$akip1160_init_one
                0x00410a40      0x130 build/akip1160_mcal.o
                0x00410a40                akip1160_init_one
 .text$akip1160_mcal_init
                0x00410b70       0x84 build/akip1160_mcal.o
                0x00410b70                akip1160_mcal_init
 .text$akip1160_proc
                0x00410bf4       0x84 build/akip1160_mcal.o
                0x00410bf4                akip1160_proc
 .text$akip1160_proc_one
                0x00410c78       0x60 build/akip1160_mcal.o
                0x00410c78                akip1160_proc_one
 .text$akip1160_raw_reg_diag
                0x00410cd8       0x18 build/akip1160_diag.o
                0x00410cd8                akip1160_raw_reg_diag
 .text$akip1160_set_command
                0x00410cf0      0x220 build/akip1160_commands.o
                0x00410cf0                akip1160_set_command
 .text$akip1160_voltage_set
                0x00410f10       0xcc build/akip1160_mcal.o
                0x00410f10                akip1160_voltage_set
 .text$arr_i8_sum_vals
                0x00410fdc       0x4c build/array.o
                0x00410fdc                arr_i8_sum_vals
 .text$arr_sum  0x00411028       0x40 build/array.o
                0x00411028                arr_sum
 .text$arr_sum_double
                0x00411068       0x50 build/array.o
                0x00411068                arr_sum_double
 .text$arr_sum_i8
                0x004110b8       0x6c build/array.o
                0x004110b8                arr_sum_i8
 .text$array2str
                0x00411124      0x11c build/num_to_str.o
                0x00411124                array2str
 .text$array_add_front
                0x00411240       0x80 build/array.o
                0x00411240                array_add_front
 .text$array_bit_array_to_hex
                0x004112c0      0x20c build/array.o
                0x004112c0                array_bit_array_to_hex
 .text$array_cmp
                0x004114cc       0x7c build/array.o
                0x004114cc                array_cmp
 .text$array_double_i16_print
                0x00411548      0x264 build/array_diag.o
                0x00411548                array_double_i16_print
 .text$array_double_max_index
                0x004117ac       0x7c build/array.o
                0x004117ac                array_double_max_index
 .text$array_float_print
                0x00411828       0x90 build/array_diag.o
                0x00411828                array_float_print
 .text$array_i16_decimation_2
                0x004118b8       0xc0 build/array.o
                0x004118b8                array_i16_decimation_2
 .text$array_i16_print
                0x00411978      0x22c build/array_diag.o
                0x00411978                array_i16_print
 .text$array_i32_print
                0x00411ba4      0x230 build/array_diag.o
                0x00411ba4                array_i32_print
 .text$array_i32_print_v2
                0x00411dd4       0xd0 build/array_diag.o
                0x00411dd4                array_i32_print_v2
 .text$array_i8_mult
                0x00411ea4       0x8c build/array.o
                0x00411ea4                array_i8_mult
 .text$array_i8_mult_sum
                0x00411f30       0x84 build/array.o
                0x00411f30                array_i8_mult_sum
 .text$array_i8_print
                0x00411fb4       0x68 build/array_diag.o
                0x00411fb4                array_i8_print
 .text$array_i8_print_dec
                0x0041201c       0x68 build/array_diag.o
                0x0041201c                array_i8_print_dec
 .text$array_incr
                0x00412084       0x64 build/array.o
                0x00412084                array_incr
 .text$array_incr_u32
                0x004120e8       0x60 build/array.o
                0x004120e8                array_incr_u32
 .text$array_index_next
                0x00412148       0x44 build/array.o
                0x00412148                array_index_next
 .text$array_index_prev
                0x0041218c       0x44 build/array.o
                0x0041218c                array_index_prev
 .text$array_is_equal
                0x004121d0       0x60 build/array.o
                0x004121d0                array_is_equal
 .text$array_is_equal_ext
                0x00412230      0x120 build/array.o
                0x00412230                array_is_equal_ext
 .text$array_is_exist
                0x00412350       0x5c build/array.o
                0x00412350                array_is_exist
 .text$array_is_same
                0x004123ac       0x64 build/array.o
                0x004123ac                array_is_same
 .text$array_max_cont
                0x00412410       0xf4 build/array.o
                0x00412410                array_max_cont
 .text$array_max_double
                0x00412504       0xd0 build/array.o
                0x00412504                array_max_double
 .text$array_pat_set
                0x004125d4       0x5c build/array.o
                0x004125d4                array_pat_set
 .text$array_print_bin
                0x00412630       0x74 build/array_diag.o
                0x00412630                array_print_bin
 .text$array_print_command
                0x004126a4       0x14 build/array_commands.o
                0x004126a4                array_print_command
 .text$array_print_hex
                0x004126b8       0x88 build/array_diag.o
                0x004126b8                array_print_hex
 .text$array_print_mem
                0x00412740      0x1b4 build/array_diag.o
                0x00412740                array_print_mem
 .text$array_rand
                0x004128f4       0x90 build/array.o
                0x004128f4                array_rand
 .text$array_reverse_bytes
                0x00412984       0x90 build/array.o
                0x00412984                array_reverse_bytes
 .text$array_reverse_float
                0x00412a14       0xa4 build/array.o
                0x00412a14                array_reverse_float
 .text$array_s16_add_front
                0x00412ab8       0x5c build/array.o
                0x00412ab8                array_s16_add_front
 .text$array_s16_add_front_zeros
                0x00412b14       0xb4 build/array.o
                0x00412b14                array_s16_add_front_zeros
 .text$array_s16_shift_right
                0x00412bc8      0x124 build/array.o
                0x00412bc8                array_s16_shift_right
 .text$array_s32_add_front_zeros
                0x00412cec       0xc0 build/array.o
                0x00412cec                array_s32_add_front_zeros
 .text$array_s32_scale
                0x00412dac       0x70 build/array.o
                0x00412dac                array_s32_scale
 .text$array_s8_add_front_zeros
                0x00412e1c       0xa0 build/array.o
                0x00412e1c                array_s8_add_front_zeros
 .text$array_separator
                0x00412ebc       0x28 build/array_diag.o
 .text$array_shift_right
                0x00412ee4      0x13c build/array.o
                0x00412ee4                array_shift_right
 .text$array_u16_item_reverse_bytes
                0x00413020       0x7c build/array.o
                0x00413020                array_u16_item_reverse_bytes
 .text$array_u16_print
                0x0041309c       0x68 build/array_diag.o
                0x0041309c                array_u16_print
 .text$array_u16_print_bin
                0x00413104       0x70 build/array_diag.o
                0x00413104                array_u16_print_bin
 .text$array_u16_rand
                0x00413174       0x8c build/array.o
                0x00413174                array_u16_rand
 .text$array_u32_item_reverse_bytes
                0x00413200       0x80 build/array.o
                0x00413200                array_u32_item_reverse_bytes
 .text$array_u32_max_cont
                0x00413280       0xa4 build/array.o
                0x00413280                array_u32_max_cont
 .text$array_u32_print
                0x00413324       0xa4 build/array_diag.o
                0x00413324                array_u32_print
 .text$array_u8_del_index
                0x004133c8       0xd0 build/array.o
                0x004133c8                array_u8_del_index
 .text$array_u8_del_indices
                0x00413498      0x144 build/array.o
                0x00413498                array_u8_del_indices
 .text$array_u8_insert_first
                0x004135dc       0x84 build/array.o
                0x004135dc                array_u8_insert_first
 .text$array_u8_print
                0x00413660       0x68 build/array_diag.o
                0x00413660                array_u8_print
 .text$array_u8_print_binary
                0x004136c8       0xf0 build/array_diag.o
                0x004136c8                array_u8_print_binary
 .text$array_u8_print_dec
                0x004137b8       0x68 build/array_diag.o
                0x004137b8                array_u8_print_dec
 .text$array_u8_rand
                0x00413820       0x84 build/array.o
                0x00413820                array_u8_rand
 .text$array_u8_shift_left
                0x004138a4       0xfc build/array.o
                0x004138a4                array_u8_shift_left
 .text$array_u8_sort
                0x004139a0       0x48 build/array.o
                0x004139a0                array_u8_sort
 .text$array_u8_xor
                0x004139e8       0x68 build/array.o
                0x004139e8                array_u8_xor
 .text$assemble_uint32
                0x00413a50       0x74 build/convert.o
                0x00413a50                assemble_uint32
 .text$bit32_control_proc
                0x00413ac4       0xac build/bit_utils.o
                0x00413ac4                bit32_control_proc
 .text$bit_ctrl
                0x00413b70       0x68 build/bit_utils.o
                0x00413b70                bit_ctrl
 .text$bit_diff
                0x00413bd8      0x178 build/bit_diag.o
                0x00413bd8                bit_diff
 .text$bit_diff_command
                0x00413d50       0xec build/bit_commands.o
                0x00413d50                bit_diff_command
 .text$bit_get_u8
                0x00413e3c       0x3c build/bit_utils.o
                0x00413e3c                bit_get_u8
 .text$bit_summ16
                0x00413e78       0x50 build/bit_utils.o
                0x00413e78                bit_summ16
 .text$board_check
                0x00413ec8       0x14 build/board_monitor.o
                0x00413ec8                board_check
 .text$board_init
                0x00413edc       0x20 build/board_config.o
                0x00413edc                board_init
 .text$bool2name
                0x00413efc       0x3c build/num_to_str.o
                0x00413efc                bool2name
 .text$bool2test_status
                0x00413f38       0x3c build/num_to_str.o
                0x00413f38                bool2test_status
 .text$calc_bitness
                0x00413f74       0x5c build/bit_utils.o
                0x00413f74                calc_bitness
 .text$calc_bitness_slow
                0x00413fd0       0x78 build/bit_utils.o
                0x00413fd0                calc_bitness_slow
 .text$calc_bitness_u64
                0x00414048       0x88 build/bit_utils.o
                0x00414048                calc_bitness_u64
 .text$calc_chirp_sample
                0x004140d0      0x128 build/utils_math.o
                0x004140d0                calc_chirp_sample
 .text$calc_days_in_year
                0x004141f8        0x8 build/time_mcal.o
                0x004141f8                calc_days_in_year
 .text$calc_dtmf_sample
                0x00414200      0x11c build/utils_math.o
                0x00414200                calc_dtmf_sample
 .text$calc_fence_sample
                0x0041431c       0xbc build/utils_math.o
                0x0041431c                calc_fence_sample
 .text$calc_percent_s
                0x004143d8       0x78 build/utils_math.o
                0x004143d8                calc_percent_s
 .text$calc_percent_uu
                0x00414450       0x44 build/utils_math.o
                0x00414450                calc_percent_uu
 .text$calc_prescaler
                0x00414494       0xdc build/clock_general.o
                0x00414494                calc_prescaler
 .text$calc_pwm_sample
                0x00414570      0x104 build/utils_math.o
                0x00414570                calc_pwm_sample
 .text$calc_pwm_sample_num
                0x00414674      0x100 build/utils_math.o
                0x00414674                calc_pwm_sample_num
 .text$calc_saw_sample
                0x00414774       0xa4 build/utils_math.o
                0x00414774                calc_saw_sample
 .text$calc_sin_sample
                0x00414818      0x18c build/utils_math.o
                0x00414818                calc_sin_sample
 .text$calc_total_day_cnt
                0x004149a4        0x8 build/time_mcal.o
                0x004149a4                calc_total_day_cnt
 .text$ceil4byte
                0x004149ac       0x28 build/data_utils.o
                0x004149ac                ceil4byte
 .text$char_to_u8
                0x004149d4       0x44 build/convert.o
                0x004149d4                char_to_u8
 .text$check_continuity
                0x00414a18       0x70 build/utils_math.o
                0x00414a18                check_continuity
 .text$check_main
                0x00414a88       0x14 build/debug_info.o
                0x00414a88                check_main
 .text$clear_tui
                0x00414a9c       0x14 build/win_utils.o
                0x00414a9c                clear_tui
 .text$cli1_init
                0x00414ab0       0x14 build/cli_drv.o
                0x00414ab0                cli1_init
 .text$cli2_init
                0x00414ac4       0x14 build/cli_drv.o
                0x00414ac4                cli2_init
 .text$cli3_init
                0x00414ad8       0x14 build/cli_drv.o
                0x00414ad8                cli3_init
 .text$cli_argument_diag
                0x00414aec       0xd0 build/cli_diag.o
                0x00414aec                cli_argument_diag
 .text$cli_check_unique_commands
                0x00414bbc      0x164 build/cli_drv.o
 .text$cli_cmd_list_print
                0x00414d20      0x280 build/cli_diag.o
                0x00414d20                cli_cmd_list_print
 .text$cli_diag_command
                0x00414fa0       0x4c build/cli_native_commands.o
                0x00414fa0                cli_diag_command
 .text$cli_echo_putchar
                0x00414fec       0x58 build/cli_drv.o
                0x00414fec                cli_echo_putchar
 .text$cli_get_cnt
                0x00415044       0x48 build/cli_config.o
                0x00415044                cli_get_cnt
 .text$cli_get_command_cnt
                0x0041508c       0x1c build/cli_config.o
                0x0041508c                cli_get_command_cnt
 .text$cli_get_echo
                0x004150a8       0x40 build/cli_drv.o
                0x004150a8                cli_get_echo
 .text$cli_help_command
                0x004150e8       0xec build/cli_native_commands.o
                0x004150e8                cli_help_command
 .text$cli_init_command
                0x004151d4       0xc0 build/cli_native_commands.o
                0x004151d4                cli_init_command
 .text$cli_init_common
                0x00415294       0xd8 build/cli_drv.o
 .text$cli_init_custom
                0x0041536c       0x14 build/cli_drv.o
                0x0041536c                cli_init_custom
 .text$cli_init_one
                0x00415380      0x158 build/cli_drv.o
                0x00415380                cli_init_one
 .text$cli_is_cli_char
                0x004154d8       0x74 build/cli_drv.o
 .text$cli_is_cmd_unique
                0x0041554c       0xc4 build/cli_drv.o
 .text$cli_mcal_init
                0x00415610       0x84 build/cli_drv.o
                0x00415610                cli_mcal_init
 .text$cli_parse_args
                0x00415694      0x178 build/cli_drv.o
                0x00415694                cli_parse_args
 .text$cli_prepare_cmd
                0x0041580c      0x180 build/cli_drv.o
                0x0041580c                cli_prepare_cmd
 .text$cli_print_ascii
                0x0041598c      0x1e8 build/cli_diag.o
                0x0041598c                cli_print_ascii
 .text$cli_print_ascii_command
                0x00415b74       0xe4 build/cli_native_commands.o
                0x00415b74                cli_print_ascii_command
 .text$cli_printf
                0x00415c58        0x4 build/log.o
                0x00415c58                .weak._cli_printf._LogGetNode
 .text$cli_printf
                0x00415c5c       0x40 build/log_utils.o
                0x00415c5c                cli_printf
 .text$cli_proc
                0x00415c9c       0x84 build/cli_drv.o
                0x00415c9c                cli_proc
 .text$cli_proc_one
                0x00415d20       0xc4 build/cli_drv.o
                0x00415d20                cli_proc_one
 .text$cli_process_cmd
                0x00415de4       0xb0 build/cli_drv.o
                0x00415de4                cli_process_cmd
 .text$cli_process_cmd_ll
                0x00415e94      0x224 build/cli_drv.o
                0x00415e94                cli_process_cmd_ll
 .text$cli_process_data
                0x004160b8       0xb0 build/cli_drv.o
                0x004160b8                cli_process_data
 .text$cli_process_one_cmd
                0x00416168       0x50 build/cli_drv.o
 .text$cli_process_one_cmd_data
                0x004161b8      0x23c build/cli_drv.o
 .text$cli_prompt_ll
                0x004163f4       0xf0 build/cli_drv.o
 .text$cli_putchar
                0x004164e4       0x10 build/log.o
                0x004164e4                .weak._cli_putchar._LogGetNode
 .text$cli_putchar
                0x004164f4       0x3c build/log_utils.o
                0x004164f4                cli_putchar
 .text$cli_putstr
                0x00416530        0x4 build/log.o
                0x00416530                .weak._cli_putstr._LogGetNode
 .text$cli_putstr
                0x00416534       0x30 build/log_utils.o
                0x00416534                cli_putstr
 .text$cli_putstrln
                0x00416564       0x20 build/log_utils.o
                0x00416564                cli_putstrln
 .text$cli_set_echo
                0x00416584       0x40 build/cli_drv.o
                0x00416584                cli_set_echo
 .text$cli_toggle_echo
                0x004165c4       0x58 build/cli_drv.o
                0x004165c4                cli_toggle_echo
 .text$cli_vprintf
                0x0041661c        0x4 build/log.o
                0x0041661c                .weak._cli_vprintf._LogGetNode
 .text$cli_vprintf
                0x00416620       0x38 build/log_utils.o
                0x00416620                cli_vprintf
 .text$clock1_diag
                0x00416658       0x14 build/clock_custom_diag.o
                0x00416658                clock1_diag
 .text$clock2_diag
                0x0041666c       0x14 build/clock_custom_diag.o
                0x0041666c                clock2_diag
 .text$clock_calc_period_s
                0x00416680       0xb4 build/clock_general.o
                0x00416680                clock_calc_period_s
 .text$clock_calc_prescaler
                0x00416734      0x1b8 build/clock_general.o
                0x00416734                clock_calc_prescaler
 .text$clock_config_100mhz
                0x004168ec       0x14 build/clock_general.o
                0x004168ec                .weak._clock_config_100mhz._clock_is_valid_config
 .text$clock_config_default
                0x00416900       0x14 build/clock_general.o
                0x00416900                .weak._clock_config_default._clock_is_valid_config
 .text$clock_core_freq_get
                0x00416914       0x14 build/clock_general.o
                0x00416914                .weak._clock_core_freq_get._clock_is_valid_config
 .text$clock_core_freq_get
                0x00416928        0x8 build/clock_mcal.o
                0x00416928                clock_core_freq_get
 .text$clock_core_freq_set
                0x00416930       0x30 build/clock_general.o
                0x00416930                .weak._clock_core_freq_set._clock_is_valid_config
 .text$clock_core_freq_set
                0x00416960       0x30 build/clock_mcal.o
                0x00416960                clock_core_freq_set
 .text$clock_core_mux_get
                0x00416990       0x14 build/clock_general.o
                0x00416990                .weak._clock_core_mux_get._clock_is_valid_config
 .text$clock_core_mux_get
                0x004169a4       0x14 build/clock_mcal.o
                0x004169a4                clock_core_mux_get
 .text$clock_core_mux_set
                0x004169b8       0x20 build/clock_general.o
                0x004169b8                .weak._clock_core_mux_set._clock_is_valid_config
 .text$clock_core_mux_set
                0x004169d8       0x20 build/clock_mcal.o
                0x004169d8                clock_core_mux_set
 .text$clock_core_set_command
                0x004169f8      0x120 build/clock_commands.o
                0x004169f8                clock_core_set_command
 .text$clock_core_set_reboot
                0x00416b18       0x64 build/clock_general.o
                0x00416b18                clock_core_set_reboot
 .text$clock_custom_diag_command
                0x00416b7c       0x24 build/clock_custom_commands.o
                0x00416b7c                clock_custom_diag_command
 .text$clock_diag
                0x00416ba0       0x3c build/clock_diag.o
                0x00416ba0                clock_diag
 .text$clock_diag_command
                0x00416bdc       0x1c build/clock_commands.o
                0x00416bdc                clock_diag_command
 .text$clock_diag_frequency_command
                0x00416bf8       0x14 build/clock_custom_commands.o
                0x00416bf8                clock_diag_frequency_command
 .text$clock_frequency_get
                0x00416c0c       0x18 build/clock_mcal.o
                0x00416c0c                clock_frequency_get
 .text$clock_frequency_get_command
                0x00416c24       0x14 build/clock_custom_commands.o
                0x00416c24                clock_frequency_get_command
 .text$clock_hw_pause_command
                0x00416c38       0xc0 build/clock_commands.o
                0x00416c38                clock_hw_pause_command
 .text$clock_init_command
                0x00416cf8       0x1c build/clock_commands.o
                0x00416cf8                clock_init_command
 .text$clock_int_per_ms
                0x00416d14       0x60 build/clock_general.o
                0x00416d14                clock_int_per_ms
 .text$clock_int_per_us
                0x00416d74       0xc4 build/clock_general.o
                0x00416d74                clock_int_per_us
 .text$clock_is_valid_config
                0x00416e38       0x6c build/clock_general.o
                0x00416e38                clock_is_valid_config
 .text$clock_mcal_init
                0x00416ea4       0x7c build/clock_general.o
                0x00416ea4                .weak._clock_mcal_init._clock_is_valid_config
 .text$clock_mcal_init
                0x00416f20       0x28 build/clock_mcal.o
                0x00416f20                clock_mcal_init
 .text$clock_mux_command
                0x00416f48       0xfc build/clock_commands.o
                0x00416f48                clock_mux_command
 .text$clock_peripheral_diag_command
                0x00417044       0x14 build/clock_custom_commands.o
                0x00417044                clock_peripheral_diag_command
 .text$clock_raw_reg_command
                0x00417058       0x14 build/clock_custom_commands.o
                0x00417058                clock_raw_reg_command
 .text$clock_start_pause_init
                0x0041706c       0x20 build/clock_general.o
                0x0041706c                clock_start_pause_init
 .text$clock_sw_pause_command
                0x0041708c       0xdc build/clock_commands.o
                0x0041708c                clock_sw_pause_command
 .text$clock_sw_pause_ms
                0x00417168       0x50 build/clock_general.o
                0x00417168                clock_sw_pause_ms
 .text$clock_up_time_command
                0x004171b8       0x58 build/clock_commands.o
                0x004171b8                clock_up_time_command
 .text$clock_x86_init
                0x00417210       0x28 build/clock_mcal.o
                0x00417210                clock_x86_init
 .text$cmd_beep
                0x00417238       0x90 build/cli_native_commands.o
                0x00417238                cmd_beep
 .text$cmd_echo
                0x004172c8       0xec build/cli_native_commands.o
                0x004172c8                cmd_echo
 .text$cmd_find_addr
                0x004173b4      0x1ec build/debugger_commands.o
                0x004173b4                cmd_find_addr
 .text$cmd_launch_function
                0x004175a0       0x90 build/debugger_commands.o
                0x004175a0                cmd_launch_function
 .text$cmd_log_color
                0x00417630       0x7c build/log_commands.o
                0x00417630                cmd_log_color
 .text$cmd_log_diag
                0x004176ac       0x90 build/log_commands.o
                0x004176ac                cmd_log_diag
 .text$cmd_log_flush
                0x0041773c       0x80 build/log_commands.o
                0x0041773c                cmd_log_flush
 .text$cmd_log_init
                0x004177bc       0x1c build/log_commands.o
                0x004177bc                cmd_log_init
 .text$cmd_log_level
                0x004177d8      0x160 build/log_commands.o
                0x004177d8                cmd_log_level
 .text$cmd_log_try_color
                0x00417938      0x14c build/log_commands.o
                0x00417938                cmd_log_try_color
 .text$cmd_low_level_control
                0x00417a84      0x1d4 build/cli_native_commands.o
                0x00417a84                cmd_low_level_control
 .text$cmd_read_memory
                0x00417c58      0x218 build/debugger_commands.o
                0x00417c58                cmd_read_memory
 .text$cmd_repeat
                0x00417e70      0x258 build/debugger_commands.o
                0x00417e70                cmd_repeat
 .text$cmd_sysinfo
                0x004180c8       0x7c build/cli_native_commands.o
                0x004180c8                cmd_sysinfo
 .text$cmd_unit_test_list
                0x00418144       0xac build/unit_test_commands.o
                0x00418144                cmd_unit_test_list
 .text$cmd_unit_test_run
                0x004181f0      0x138 build/unit_test_commands.o
                0x004181f0                cmd_unit_test_run
 .text$cmd_unit_test_run_by_num
                0x00418328       0x88 build/unit_test_commands.o
                0x00418328                cmd_unit_test_run_by_num
 .text$cmd_unit_test_run_by_sub_name
                0x004183b0       0x68 build/unit_test_commands.o
                0x004183b0                cmd_unit_test_run_by_sub_name
 .text$cmd_unit_test_run_first_fail
                0x00418418       0xe8 build/unit_test_commands.o
                0x00418418                cmd_unit_test_run_first_fail
 .text$cmd_version
                0x00418500       0x60 build/cli_native_commands.o
                0x00418500                cmd_version
 .text$cmd_wd_test
                0x00418560       0xa0 build/cli_native_commands.o
                0x00418560                cmd_wd_test
 .text$cmd_wd_test_hw
                0x00418600       0xbc build/cli_native_commands.o
                0x00418600                cmd_wd_test_hw
 .text$cmd_write_memory
                0x004186bc      0x150 build/debugger_commands.o
                0x004186bc                cmd_write_memory
 .text$common_diag
                0x0041880c       0x14 build/common_diag.o
                0x0041880c                common_diag
 .text$common_diag_command
                0x00418820       0x44 build/common_commands.o
                0x00418820                common_diag_command
 .text$compare_u8
                0x00418864       0x5c build/array.o
 .text$connectivit_compose_direction
                0x004188c0       0x50 build/connectivity.o
                0x004188c0                connectivit_compose_direction
 .text$copy_and_rev16
                0x00418910       0x34 build/word_utils.o
                0x00418910                copy_and_rev16
 .text$copy_and_rev32
                0x00418944       0x30 build/dword_utils.o
                0x00418944                copy_and_rev32
 .text$copy_and_rev64
                0x00418974       0x4c build/byte_utils.o
                0x00418974                copy_and_rev64
 .text$count_all_link_command
                0x004189c0      0x134 build/debugger_commands.o
                0x004189c0                count_all_link_command
 .text$count_link_command
                0x00418af4       0x14 build/debugger_commands.o
                0x00418af4                count_link_command
 .text$count_set_bits
                0x00418b08       0x3c build/bit_utils.o
                0x00418b08                count_set_bits
 .text$count_substring
                0x00418b44       0x80 build/str_utils_ex.o
                0x00418b44                count_substring
 .text$csv_add_back
                0x00418bc4       0x84 build/csv.o
                0x00418bc4                csv_add_back
 .text$csv_add_letter
                0x00418c48       0xa4 build/csv.o
 .text$csv_cnt  0x00418cec       0xf8 build/csv.o
                0x00418cec                csv_cnt
 .text$csv_cnt_acc_proc
                0x00418de4      0x13c build/csv.o
 .text$csv_cnt_end_proc
                0x00418f20      0x10c build/csv.o
 .text$csv_cnt_init_proc
                0x0041902c      0x144 build/csv.o
 .text$csv_cnt_proc
                0x00419170      0x1f4 build/csv.o
 .text$csv_cnt_sep_proc
                0x00419364      0x124 build/csv.o
 .text$csv_count_node
                0x00419488      0x12c build/csv.o
                0x00419488                csv_count_node
 .text$csv_del_node_front
                0x004195b4      0x110 build/csv.o
                0x004195b4                csv_del_node_front
 .text$csv_fetch_text
                0x004196c4      0x21c build/csv.o
                0x004196c4                csv_fetch_text
 .text$csv_init
                0x004198e0       0xc0 build/csv.o
 .text$csv_parse_double
                0x004199a0      0x180 build/csv.o
                0x004199a0                csv_parse_double
 .text$csv_parse_int16
                0x00419b20      0x190 build/csv.o
                0x00419b20                csv_parse_int16
 .text$csv_parse_last_text
                0x00419cb0       0xb0 build/csv.o
                0x00419cb0                csv_parse_last_text
 .text$csv_parse_text
                0x00419d60      0x158 build/csv.o
                0x00419d60                csv_parse_text
 .text$csv_parse_uint8
                0x00419eb8      0x194 build/csv.o
                0x00419eb8                csv_parse_uint8
 .text$csv_print
                0x0041a04c      0x1c0 build/csv_diag.o
                0x0041a04c                csv_print
 .text$csv_proc_fetch_value
                0x0041a20c       0x80 build/csv.o
                0x0041a20c                csv_proc_fetch_value
 .text$csv_save_to_end
                0x0041a28c      0x10c build/csv.o
                0x0041a28c                csv_save_to_end
 .text$csv_save_two_double
                0x0041a398      0x144 build/csv.o
                0x0041a398                csv_save_two_double
 .text$csv_save_two_float_int
                0x0041a4dc      0x140 build/csv.o
                0x0041a4dc                csv_save_two_float_int
 .text$csv_save_two_float_int_end
                0x0041a61c      0x110 build/csv.o
                0x0041a61c                csv_save_two_float_int_end
 .text$csv_save_two_int32
                0x0041a72c      0x140 build/csv.o
                0x0041a72c                csv_save_two_int32
 .text$csv_symbol_2_input
                0x0041a86c       0x38 build/csv.o
 .text$data_clear
                0x0041a8a4       0x20 build/data_utils.o
                0x0041a8a4                data_clear
 .text$data_copy
                0x0041a8c4       0x24 build/data_utils.o
                0x0041a8c4                data_copy
 .text$data_u32_init
                0x0041a8e8       0x40 build/data_utils.o
                0x0041a8e8                data_u32_init
 .text$data_u64_init
                0x0041a928       0x54 build/qword_utils.o
                0x0041a928                data_u64_init
 .text$data_u64_update
                0x0041a97c       0x94 build/qword_utils.o
                0x0041a97c                data_u64_update
 .text$date_parse
                0x0041aa10      0x18c build/time_mcal.o
                0x0041aa10                date_parse
 .text$date_parse_rus
                0x0041ab9c      0x28c build/time_mcal.o
                0x0041ab9c                date_parse_rus
 .text$debug_raw_reg_diag
                0x0041ae28      0x388 build/debugger.o
                0x0041ae28                debug_raw_reg_diag
 .text$deg_to_rad
                0x0041b1b0       0x28 build/utils_math.o
                0x0041b1b0                deg_to_rad
 .text$diag_progress_log
                0x0041b1d8       0xbc build/common_diag.o
                0x0041b1d8                diag_progress_log
 .text$double_is_zero
                0x0041b294       0x44 build/float_utils.o
                0x0041b294                double_is_zero
 .text$double_max
                0x0041b2d8       0x4c build/float_utils.o
                0x0041b2d8                double_max
 .text$double_to_uint16
                0x0041b324       0x44 build/convert.o
                0x0041b324                double_to_uint16
 .text$double_val_reset
                0x0041b368       0x40 build/data_utils.o
                0x0041b368                double_val_reset
 .text$dtoa_    0x0041b3a8       0x34 build/convert.o
                0x0041b3a8                dtoa_
 .text$dtoa_normal
                0x0041b3dc      0x500 build/convert.o
 .text$dump_cmd_result
                0x0041b8dc       0x38 build/cli_native_commands.o
                0x0041b8dc                dump_cmd_result
 .text$dump_cmd_result_ex
                0x0041b914       0x48 build/cli_native_commands.o
                0x0041b914                dump_cmd_result_ex
 .text$dump_unit_test_all
                0x0041b95c       0x2c build/unit_test_diag.o
                0x0041b95c                dump_unit_test_all
 .text$exit_command
                0x0041b988       0x1c build/pc_commands.o
                0x0041b988                exit_command
 .text$explore_stack_dir
                0x0041b9a4       0x2c build/debug_info.o
                0x0041b9a4                explore_stack_dir
 .text$extract_digit
                0x0041b9d0       0x8c build/data_utils.o
                0x0041b9d0                extract_digit
 .text$extract_subval_from_32bit
                0x0041ba5c       0x74 build/bit_utils.o
                0x0041ba5c                extract_subval_from_32bit
 .text$extract_subval_from_64bit
                0x0041bad0       0xac build/bit_utils.o
                0x0041bad0                extract_subval_from_64bit
 .text$extract_subval_from_8bit
                0x0041bb7c       0x9c build/bit_utils.o
                0x0041bb7c                extract_subval_from_8bit
 .text$facility2str_lut
                0x0041bc18       0x6c build/system_diag.o
                0x0041bc18                facility2str_lut
 .text$facility_get_cnt
                0x0041bc84        0x8 build/system_diag.o
 .text$facility_max_name
                0x0041bc8c       0x6c build/system_diag.o
                0x0041bc8c                facility_max_name
 .text$failed_tests_print
                0x0041bcf8      0x100 build/unit_test.o
                0x0041bcf8                failed_tests_print
 .text$failed_tests_reset
                0x0041bdf8       0x3c build/unit_test.o
                0x0041bdf8                failed_tests_reset
 .text$fetch_big_endian_dword
                0x0041be34       0x4c build/dword_utils.o
                0x0041be34                fetch_big_endian_dword
 .text$fetch_big_endian_qword
                0x0041be80       0x64 build/qword_utils.o
                0x0041be80                fetch_big_endian_qword
 .text$fetch_big_endian_word
                0x0041bee4       0x50 build/byte_utils.o
                0x0041bee4                fetch_big_endian_word
 .text$fifo_arr_del_first
                0x0041bf34       0x54 build/fifo_array.o
                0x0041bf34                fifo_arr_del_first
 .text$fifo_arr_get_count
                0x0041bf88       0x18 build/fifo_array.o
                0x0041bf88                fifo_arr_get_count
 .text$fifo_arr_get_size
                0x0041bfa0       0x18 build/fifo_array.o
                0x0041bfa0                fifo_arr_get_size
 .text$fifo_arr_init
                0x0041bfb8       0x74 build/fifo_array.o
                0x0041bfb8                fifo_arr_init
 .text$fifo_arr_pack_frame
                0x0041c02c      0x10c build/fifo_array.o
                0x0041c02c                fifo_arr_pack_frame
 .text$fifo_arr_peek
                0x0041c138       0x5c build/fifo_array.o
                0x0041c138                fifo_arr_peek
 .text$fifo_arr_pull
                0x0041c194       0xa0 build/fifo_array.o
                0x0041c194                fifo_arr_pull
 .text$fifo_arr_push
                0x0041c234       0x94 build/fifo_array.o
                0x0041c234                fifo_arr_push
 .text$fifo_clean
                0x0041c2c8       0x78 build/fifo_char.o
                0x0041c2c8                fifo_clean
 .text$fifo_free
                0x0041c340       0x20 build/fifo_char.o
                0x0041c340                fifo_free
 .text$fifo_get_count
                0x0041c360       0x44 build/fifo_char.o
                0x0041c360                fifo_get_count
 .text$fifo_get_size
                0x0041c3a4       0x20 build/fifo_char.o
                0x0041c3a4                fifo_get_size
 .text$fifo_get_spare
                0x0041c3c4       0x20 build/fifo_char.o
                0x0041c3c4                fifo_get_spare
 .text$fifo_index_add
                0x0041c3e4       0x70 build/fifo_index.o
                0x0041c3e4                fifo_index_add
 .text$fifo_index_continuus_used_size
                0x0041c454       0x38 build/fifo_index.o
                0x0041c454                fifo_index_continuus_used_size
 .text$fifo_index_free
                0x0041c48c       0x9c build/fifo_index.o
                0x0041c48c                fifo_index_free
 .text$fifo_index_get
                0x0041c528       0x68 build/fifo_index.o
                0x0041c528                fifo_index_get
 .text$fifo_index_get_size
                0x0041c590        0x8 build/fifo_index.o
                0x0041c590                fifo_index_get_size
 .text$fifo_index_get_spare
                0x0041c598       0x14 build/fifo_index.o
                0x0041c598                fifo_index_get_spare
 .text$fifo_index_get_used
                0x0041c5ac        0x8 build/fifo_index.o
                0x0041c5ac                fifo_index_get_used
 .text$fifo_index_get_used_pp
                0x0041c5b4       0x60 build/fifo_index.o
                0x0041c5b4                fifo_index_get_used_pp
 .text$fifo_index_init
                0x0041c614       0x58 build/fifo_index.o
                0x0041c614                fifo_index_init
 .text$fifo_index_valid
                0x0041c66c       0xe0 build/fifo_index.o
                0x0041c66c                fifo_index_valid
 .text$fifo_init
                0x0041c74c       0x74 build/fifo_char.o
                0x0041c74c                fifo_init
 .text$fifo_is_valid
                0x0041c7c0       0x54 build/fifo_char.o
 .text$fifo_peek
                0x0041c814       0x58 build/fifo_char.o
                0x0041c814                fifo_peek
 .text$fifo_peek_array
                0x0041c86c      0x110 build/fifo_char.o
                0x0041c86c                fifo_peek_array
 .text$fifo_pull
                0x0041c97c       0x78 build/fifo_char.o
                0x0041c97c                fifo_pull
 .text$fifo_pull_array
                0x0041c9f4       0xe4 build/fifo_char.o
                0x0041c9f4                fifo_pull_array
 .text$fifo_push
                0x0041cad8       0x94 build/fifo_char.o
                0x0041cad8                fifo_push
 .text$fifo_push_array
                0x0041cb6c       0xd4 build/fifo_char.o
                0x0041cb6c                fifo_push_array
 .text$fifo_reset
                0x0041cc40       0x78 build/fifo_char.o
                0x0041cc40                fifo_reset
 .text$file_api_close
                0x0041ccb8       0x14 build/file_api.o
                0x0041ccb8                file_api_close
 .text$file_api_gets
                0x0041cccc       0x40 build/file_api.o
                0x0041cccc                file_api_gets
 .text$file_api_open_re
                0x0041cd0c       0x40 build/file_api.o
                0x0041cd0c                file_api_open_re
 .text$file_array_to_binary_file
                0x0041cd4c       0x14 build/file_api.o
                0x0041cd4c                file_array_to_binary_file
 .text$file_get_size
                0x0041cd60       0x14 build/file_api.o
                0x0041cd60                file_get_size
 .text$file_line_cnt
                0x0041cd74       0x30 build/file_api.o
                0x0041cd74                file_line_cnt
 .text$file_load_to_array
                0x0041cda4       0x14 build/file_api.o
                0x0041cda4                file_load_to_array
 .text$file_path_to_file_name
                0x0041cdb8       0x50 build/file_api.o
                0x0041cdb8                file_path_to_file_name
 .text$file_save_array
                0x0041ce08       0x14 build/file_api.o
                0x0041ce08                file_save_array
 .text$find_addr_by_val
                0x0041ce1c      0x174 build/debugger.o
                0x0041ce1c                find_addr_by_val
 .text$float_binary_coded_decimal_to_float
                0x0041cf90       0x14 build/float_utils.o
                0x0041cf90                float_binary_coded_decimal_to_float
 .text$float_is_zero
                0x0041cfa4       0x34 build/float_utils.o
                0x0041cfa4                float_is_zero
 .text$float_limiter
                0x0041cfd8       0x2c build/float_utils.o
                0x0041cfd8                float_limiter
 .text$float_limiter2
                0x0041d004       0x58 build/float_utils.o
                0x0041d004                float_limiter2
 .text$float_limiter_down_up
                0x0041d05c       0x48 build/float_utils.o
                0x0041d05c                float_limiter_down_up
 .text$float_max
                0x0041d0a4       0x2c build/float_utils.o
                0x0041d0a4                float_max
 .text$float_min
                0x0041d0d0       0x2c build/float_utils.o
                0x0041d0d0                float_min
 .text$float_sign
                0x0041d0fc       0x34 build/float_utils.o
                0x0041d0fc                float_sign
 .text$float_to_integer_and_fractional
                0x0041d130       0xc4 build/rational_num.o
                0x0041d130                float_to_integer_and_fractional
 .text$float_to_uint16
                0x0041d1f4       0x34 build/convert.o
                0x0041d1f4                float_to_uint16
 .text$float_val_reset
                0x0041d228       0x40 build/data_utils.o
                0x0041d228                float_val_reset
 .text$flow_ctrl_diag
                0x0041d268      0x21c build/protocol_diag.o
                0x0041d268                flow_ctrl_diag
 .text$flow_ctrl_print_lost
                0x0041d484      0x11c build/protocol_diag.o
                0x0041d484                flow_ctrl_print_lost
 .text$fprintf  0x0041d5a0       0x34 build/csv.o
 .text$fraction_to_fixed_point_float
                0x0041d5d4      0x140 build/rational_num.o
                0x0041d5d4                fraction_to_fixed_point_float
 .text$freq2period_ms
                0x0041d714       0x94 build/utils_math.o
                0x0041d714                freq2period_ms
 .text$ftoa_    0x0041d7a8       0x8c build/convert.o
                0x0041d7a8                ftoa_
 .text$ftoa_normal
                0x0041d834      0x4ec build/convert.o
 .text$generate_32bit_custom_mask
                0x0041dd20       0x68 build/bit_utils.o
                0x0041dd20                generate_32bit_custom_mask
 .text$generate_32bit_mask
                0x0041dd88       0x44 build/bit_utils.o
                0x0041dd88                generate_32bit_mask
 .text$generate_64bit_mask
                0x0041ddcc       0x68 build/bit_utils.o
                0x0041ddcc                generate_64bit_mask
 .text$generate_8bit_mask
                0x0041de34       0x60 build/bit_utils.o
                0x0041de34                generate_8bit_mask
 .text$generate_string
                0x0041de94       0x5c build/str_utils.o
                0x0041de94                generate_string
 .text$get_bit_from_32bit
                0x0041def0       0x34 build/bit_utils.o
                0x0041def0                get_bit_from_32bit
 .text$get_col_count
                0x0041df24       0x3c build/table_utils.o
 .text$get_spaces_str
                0x0041df60       0x34 build/data_utils.o
                0x0041df60                get_spaces_str
 .text$get_str_len
                0x0041df94       0x60 build/convert.o
 .text$get_unit_test
                0x0041dff4       0x30 build/unit_test.o
                0x0041dff4                get_unit_test
 .text$h_count_link_diag
                0x0041e024       0x14 build/debugger_commands.o
 .text$has_fifo_valid_data
                0x0041e038       0x90 build/fifo_char.o
                0x0041e038                has_fifo_valid_data
 .text$health_monitor_command
                0x0041e0c8       0xdc build/health_monitor_commands.o
                0x0041e0c8                health_monitor_command
 .text$health_monitor_reset
                0x0041e1a4       0x18 build/health_monitor.o
                0x0041e1a4                health_monitor_reset
 .text$health_monitor_reset_command
                0x0041e1bc       0x1c build/health_monitor_commands.o
                0x0041e1bc                health_monitor_reset_command
 .text$health_monotor_init
                0x0041e1d8       0x40 build/health_monitor.o
                0x0041e1d8                health_monotor_init
 .text$health_monotor_proc
                0x0041e218       0x44 build/health_monitor.o
                0x0041e218                health_monotor_proc
 .text$hex2ascii
                0x0041e25c       0xdc build/common_diag.o
                0x0041e25c                hex2ascii
 .text$high_snr_decode
                0x0041e338      0x190 build/float_utils.o
                0x0041e338                high_snr_decode
 .text$hour_to_min
                0x0041e4c8       0x1c build/time_mcal.o
                0x0041e4c8                hour_to_min
 .text$i2a      0x0041e4e4       0x44 build/oprintf.o
 .text$inc_index
                0x0041e528       0x24 build/array.o
                0x0041e528                inc_index
 .text$insert_big_endian_word
                0x0041e54c       0x44 build/word_utils.o
                0x0041e54c                insert_big_endian_word
 .text$insert_subval_in_32bit
                0x0041e590      0x148 build/bit_utils.o
                0x0041e590                insert_subval_in_32bit
 .text$int32_range_limiter
                0x0041e6d8       0x44 build/data_utils.o
                0x0041e6d8                int32_range_limiter
 .text$int8_limiter
                0x0041e71c       0x34 build/data_utils.o
                0x0041e71c                int8_limiter
 .text$int_pow  0x0041e750       0x24 build/utils_math.o
                0x0041e750                int_pow
 .text$int_pow_fast
                0x0041e774       0x70 build/utils_math.o
                0x0041e774                int_pow_fast
 .text$int_pow_slow
                0x0041e7e4       0x58 build/utils_math.o
                0x0041e7e4                int_pow_slow
 .text$interface_rx
                0x0041e83c       0x14 build/interface_drv.o
                0x0041e83c                interface_rx
 .text$interface_send
                0x0041e850      0x184 build/interface_drv.o
                0x0041e850                interface_send
 .text$invert_bits16
                0x0041e9d4       0x18 build/bit_utils.o
                0x0041e9d4                invert_bits16
 .text$ipow     0x0041e9ec       0xe4 build/utils_math.o
                0x0041e9ec                ipow
 .text$is_around_int_val
                0x0041ead0       0x38 build/data_utils.o
                0x0041ead0                is_around_int_val
 .text$is_arr_pat
                0x0041eb08       0x54 build/array.o
                0x0041eb08                is_arr_pat
 .text$is_array_equal
                0x0041eb5c      0x184 build/array.o
                0x0041eb5c                is_array_equal
 .text$is_byte_in_range
                0x0041ece0       0x44 build/byte_utils.o
                0x0041ece0                is_byte_in_range
 .text$is_byte_odd
                0x0041ed24       0x28 build/byte_utils.o
                0x0041ed24                is_byte_odd
 .text$is_contain
                0x0041ed4c       0xe8 build/str_utils.o
                0x0041ed4c                is_contain
 .text$is_dec_digit
                0x0041ee34       0x30 build/convert.o
                0x0041ee34                is_dec_digit
 .text$is_dec_str
                0x0041ee64       0xbc build/convert.o
                0x0041ee64                is_dec_str
 .text$is_double_equal_absolute
                0x0041ef20       0xb4 build/float_utils.o
                0x0041ef20                is_double_equal_absolute
 .text$is_double_equal_relative
                0x0041efd4       0xa4 build/float_utils.o
                0x0041efd4                is_double_equal_relative
 .text$is_equal_u32
                0x0041f078       0x28 build/common_functions.o
                0x0041f078                is_equal_u32
 .text$is_false
                0x0041f0a0       0xa0 build/convert.o
 .text$is_fifo_arr_valid
                0x0041f140       0x34 build/fifo_array.o
 .text$is_flash_addr
                0x0041f174        0x8 build/cpu_x86.o
                0x0041f174                is_flash_addr
 .text$is_float_equal_absolute
                0x0041f17c       0x6c build/float_utils.o
                0x0041f17c                is_float_equal_absolute
 .text$is_float_equal_relative
                0x0041f1e8       0x74 build/float_utils.o
                0x0041f1e8                is_float_equal_relative
 .text$is_floats_equal
                0x0041f25c       0x28 build/float_utils.o
                0x0041f25c                is_floats_equal
 .text$is_format_string
                0x0041f284       0xbc build/print_format.o
 .text$is_hex_digit
                0x0041f340       0x48 build/convert.o
                0x0041f340                is_hex_digit
 .text$is_hex_str
                0x0041f388      0x148 build/convert.o
                0x0041f388                is_hex_str
 .text$is_little_endian
                0x0041f4d0       0x1c build/debug_info.o
                0x0041f4d0                is_little_endian
 .text$is_log_enabled
                0x0041f4ec       0x44 build/log.o
 .text$is_mem_addr
                0x0041f530       0x14 build/microcontroller_drv.o
                0x0041f530                is_mem_addr
 .text$is_parity_odd
                0x0041f544       0x40 build/bit_utils.o
                0x0041f544                is_parity_odd
 .text$is_positive_val
                0x0041f584       0x20 build/unit_test_diag.o
 .text$is_power_of_two
                0x0041f5a4       0x34 build/utils_math.o
                0x0041f5a4                is_power_of_two
 .text$is_prime
                0x0041f5d8       0x74 build/utils_math.o
                0x0041f5d8                is_prime
 .text$is_print_cmd
                0x0041f64c      0x1c8 build/cli_drv.o
                0x0041f64c                is_print_cmd
 .text$is_printf_clean
                0x0041f814       0x34 build/log_utils.o
                0x0041f814                is_printf_clean
 .text$is_ram_addr
                0x0041f848        0x8 build/cpu_x86.o
                0x0041f848                is_ram_addr
 .text$is_range_uint32
                0x0041f850       0x2c build/data_utils.o
                0x0041f850                is_range_uint32
 .text$is_signed
                0x0041f87c       0x48 build/convert.o
 .text$is_text_addr
                0x0041f8c4        0x8 build/mem_config.o
                0x0041f8c4                is_text_addr
 .text$is_time_date_equal
                0x0041f8cc      0x1e8 build/time_mcal.o
                0x0041f8cc                is_time_date_equal
 .text$is_time_date_equal_soft
                0x0041fab4       0x5c build/time_mcal.o
                0x0041fab4                is_time_date_equal_soft
 .text$is_trim_char
                0x0041fb10       0x40 build/str_utils.o
 .text$is_true  0x0041fb50       0xa0 build/convert.o
 .text$is_valid_bit_mask_u8
                0x0041fbf0      0x11c build/bit_utils.o
                0x0041fbf0                is_valid_bit_mask_u8
 .text$is_valid_date
                0x0041fd0c       0xf0 build/time_mcal.o
                0x0041fd0c                is_valid_date
 .text$is_valid_double_symbol
                0x0041fdfc       0x64 build/convert.o
                0x0041fdfc                is_valid_double_symbol
 .text$is_valid_time
                0x0041fe60       0xec build/time_mcal.o
                0x0041fe60                is_valid_time
 .text$is_valid_time_date
                0x0041ff4c       0x38 build/time_mcal.o
                0x0041ff4c                is_valid_time_date
 .text$li2a     0x0041ff84       0x64 build/oprintf.o
 .text$limit_value_double
                0x0041ffe8       0x74 build/data_utils.o
                0x0041ffe8                limit_value_double
 .text$limiter  0x0042005c       0xe0 build/limiter.o
                0x0042005c                limiter
 .text$limiter_get_time_us
                0x0042013c       0x24 build/limiter.o
                0x0042013c                limiter_get_time_us
 .text$limiter_init
                0x00420160       0xd4 build/limiter.o
                0x00420160                limiter_init
 .text$limiter_task_frame
                0x00420234      0x20c build/limiter.o
 .text$lo_calc_cos_sample
                0x00420440       0xc4 build/utils_math.o
                0x00420440                lo_calc_cos_sample
 .text$lo_calc_sin_sample
                0x00420504       0xbc build/utils_math.o
                0x00420504                lo_calc_sin_sample
 .text$log_debug_res
                0x004205c0       0x60 build/log.o
                0x004205c0                log_debug_res
 .text$log_enable
                0x00420620       0x4c build/log.o
                0x00420620                log_enable
 .text$log_get_cnt
                0x0042066c       0x48 build/log_config.o
                0x0042066c                log_get_cnt
 .text$log_info_res
                0x004206b4       0x60 build/log.o
                0x004206b4                log_info_res
 .text$log_info_res_u32
                0x00420714       0x70 build/log.o
                0x00420714                log_info_res_u32
 .text$log_init_custom
                0x00420784       0x1c build/log.o
 .text$log_init_one
                0x004207a0       0x6c build/log.o
 .text$log_initialize
                0x0042080c       0x30 build/log.o
                0x0042080c                log_initialize
 .text$log_level_diag
                0x0042083c      0x20c build/log_diag.o
                0x0042083c                log_level_diag
 .text$log_level_get
                0x00420a48       0x34 build/log.o
                0x00420a48                log_level_get
 .text$log_level_get_set
                0x00420a7c       0x44 build/log.o
                0x00420a7c                log_level_get_set
 .text$log_level_name
                0x00420ac0       0x80 build/log_diag.o
                0x00420ac0                log_level_name
 .text$log_level_name_long
                0x00420b40       0x94 build/log_diag.o
                0x00420b40                log_level_name_long
 .text$log_level_set
                0x00420bd4       0x3c build/log.o
                0x00420bd4                log_level_set
 .text$log_mcal_init
                0x00420c10       0x84 build/log.o
                0x00420c10                log_mcal_init
 .text$log_mcal_init_disable
                0x00420c94       0x64 build/log.o
                0x00420c94                log_mcal_init_disable
 .text$log_parn_res
                0x00420cf8       0x60 build/log.o
                0x00420cf8                log_parn_res
 .text$log_print_conditional
                0x00420d58      0x1b0 build/log.o
                0x00420d58                log_print_conditional
 .text$log_res  0x00420f08       0x60 build/log.o
                0x00420f08                log_res
 .text$log_res_to_color
                0x00420f68       0x34 build/log_diag.o
                0x00420f68                log_res_to_color
 .text$log_res_u32
                0x00420f9c       0x70 build/log.o
                0x00420f9c                log_res_u32
 .text$log_time_stamp_command
                0x0042100c       0x80 build/log_commands.o
                0x0042100c                log_time_stamp_command
 .text$log_write
                0x0042108c       0x5c build/log.o
                0x0042108c                log_write
 .text$log_write_end
                0x004210e8       0x20 build/log.o
                0x004210e8                log_write_end
 .text$log_write_prefix
                0x00421108      0x120 build/log.o
                0x00421108                log_write_prefix
 .text$ltoa32_  0x00421228      0x120 build/num_to_str.o
                0x00421228                ltoa32_
 .text$ltoa64_  0x00421348      0x1d0 build/num_to_str.o
                0x00421348                ltoa64_
 .text$ltoa_hex32
                0x00421518       0x48 build/num_to_str.o
                0x00421518                ltoa_hex32
 .text$ltoa_hex64
                0x00421560       0x60 build/num_to_str.o
                0x00421560                ltoa_hex64
 .text$main     0x004215c0      0x2f4 build/main.o
                0x004215c0                main
 .text$malloc_try_command
                0x004218b4      0x120 build/storage_commands.o
                0x004218b4                malloc_try_command
 .text$math_abs_s32
                0x004219d4       0x24 build/utils_math.o
                0x004219d4                math_abs_s32
 .text$math_calc_abs
                0x004219f8       0x34 build/utils_math.o
                0x004219f8                math_calc_abs
 .text$math_calc_sin_sample
                0x00421a2c      0x158 build/utils_math.o
                0x00421a2c                math_calc_sin_sample
 .text$math_comparator
                0x00421b84       0x28 build/utils_math.o
                0x00421b84                math_comparator
 .text$math_period_ms_to_freq_hz
                0x00421bac       0x40 build/utils_math.o
                0x00421bac                math_period_ms_to_freq_hz
 .text$math_sign
                0x00421bec       0x40 build/utils_math.o
                0x00421bec                math_sign
 .text$math_sign_f
                0x00421c2c       0x40 build/utils_math.o
                0x00421c2c                math_sign_f
 .text$math_sign_s32
                0x00421c6c       0x34 build/utils_math.o
                0x00421c6c                math_sign_s32
 .text$math_vector_angle_command
                0x00421ca0      0x118 build/math_commands.o
                0x00421ca0                math_vector_angle_command
 .text$max16    0x00421db8       0x28 build/data_utils.o
                0x00421db8                max16
 .text$max16u   0x00421de0       0x28 build/data_utils.o
                0x00421de0                max16u
 .text$max32    0x00421e08       0x10 build/data_utils.o
                0x00421e08                max32
 .text$max32u   0x00421e18       0x10 build/data_utils.o
                0x00421e18                max32u
 .text$max64u   0x00421e28       0x48 build/qword_utils.o
                0x00421e28                max64u
 .text$max8     0x00421e70       0x28 build/data_utils.o
                0x00421e70                max8
 .text$max8u    0x00421e98       0x28 build/data_utils.o
                0x00421e98                max8u
 .text$max_no_branch
                0x00421ec0       0x24 build/bit_utils.o
                0x00421ec0                max_no_branch
 .text$mcu_is_text_addr
                0x00421ee4       0x14 build/microcontroller_drv.o
                0x00421ee4                mcu_is_text_addr
 .text$mcu_phy_assress_classify
                0x00421ef8       0x18 build/microcontroller_drv.o
                0x00421ef8                mcu_phy_assress_classify
 .text$mem_scan
                0x00421f10      0x118 build/data_utils.o
                0x00421f10                mem_scan
 .text$memdup   0x00422028       0x54 build/array.o
                0x00422028                memdup
 .text$memmory_test_command
                0x0042207c       0xe0 build/debugger_commands.o
                0x0042207c                memmory_test_command
 .text$microcontroller_custom_init
                0x0042215c       0x14 build/microcontroller_drv.o
                0x0042215c                .weak._microcontroller_custom_init._mcu_phy_assress_classify
 .text$microcontroller_custom_init
                0x00422170       0x14 build/cpu_x86.o
                0x00422170                microcontroller_custom_init
 .text$microcontroller_init
                0x00422184       0x48 build/microcontroller_drv.o
                0x00422184                microcontroller_init
 .text$min16    0x004221cc       0x28 build/data_utils.o
                0x004221cc                min16
 .text$min16u   0x004221f4       0x28 build/data_utils.o
                0x004221f4                min16u
 .text$min32    0x0042221c       0x10 build/data_utils.o
                0x0042221c                min32
 .text$min32u   0x0042222c       0x10 build/data_utils.o
                0x0042222c                min32u
 .text$min64u   0x0042223c       0x48 build/qword_utils.o
                0x0042223c                min64u
 .text$min8     0x00422284       0x28 build/data_utils.o
                0x00422284                min8
 .text$min8u    0x004222ac       0x28 build/data_utils.o
                0x004222ac                min8u
 .text$min_max_diag
                0x004222d4      0x1b0 build/debug_info.o
                0x004222d4                min_max_diag
 .text$min_no_branch
                0x00422484       0x24 build/bit_utils.o
                0x00422484                min_no_branch
 .text$ms2Hz    0x004224a8       0x34 build/data_utils.o
                0x004224a8                ms2Hz
 .text$mul64    0x004224dc       0x60 build/test_sw_list.o
 .text$next_power_of_two
                0x0042253c       0x54 build/bit_utils.o
                0x0042253c                next_power_of_two
 .text$number_compose_mantissa
                0x00422590       0x78 build/convert.o
 .text$number_compose_result
                0x00422608       0xd4 build/convert.o
                0x00422608                number_compose_result
 .text$number_exponenta_calc
                0x004226dc      0x144 build/convert.o
 .text$number_final_value_calc
                0x00422820       0x9c build/convert.o
 .text$number_mantissa_save
                0x004228bc       0x78 build/convert.o
 .text$number_proc_done
                0x00422934       0x40 build/convert.o
 .text$number_proc_one
                0x00422974       0xcc build/convert.o
                0x00422974                number_proc_one
 .text$number_proc_parse_exponenta_integer
                0x00422a40       0xe8 build/convert.o
 .text$number_proc_parse_exponenta_sign
                0x00422b28      0x12c build/convert.o
 .text$number_proc_parse_fracion
                0x00422c54      0x358 build/convert.o
 .text$number_proc_parse_integer
                0x00422fac      0x3e8 build/convert.o
 .text$number_proc_parse_sign
                0x00423394      0x2f4 build/convert.o
 .text$number_proc_scale_suffix
                0x00423688       0x3c build/convert.o
 .text$number_proc_scale_suffix_after_fraction
                0x004236c4       0x3c build/convert.o
 .text$number_scale_suffix_after_num
                0x00423700       0x34 build/convert.o
 .text$ok_cnt_to_res
                0x00423734       0x20 build/common_functions.o
                0x00423734                ok_cnt_to_res
 .text$ok_cnt_update
                0x00423754       0x28 build/common_functions.o
                0x00423754                ok_cnt_update
 .text$oprintf  0x0042377c       0x2c build/oprintf.o
                0x0042377c                oprintf
 .text$oputc    0x004237a8       0x3c build/writer.o
                0x004237a8                oputc
 .text$oputs    0x004237e4       0x60 build/writer.o
                0x004237e4                oputs
 .text$oputs_len
                0x00423844       0x44 build/writer.o
                0x00423844                oputs_len
 .text$ovprint_is_valid
                0x00423888       0x34 build/oprintf.o
                0x00423888                ovprint_is_valid
 .text$ovprintf
                0x004238bc      0x830 build/oprintf.o
                0x004238bc                ovprintf
 .text$parse_date_from_val
                0x004240ec      0x134 build/time_mcal.o
                0x004240ec                parse_date_from_val
 .text$parse_lhex_array_after_prefix
                0x00424220       0xc0 build/str_utils_ex.o
                0x00424220                parse_lhex_array_after_prefix
 .text$parse_n_bit_signed
                0x004242e0      0x160 build/bit_utils.o
                0x004242e0                parse_n_bit_signed
 .text$parse_text_after_prefix
                0x00424440      0x1f4 build/str_utils_ex.o
                0x00424440                parse_text_after_prefix
 .text$parse_time_from_val
                0x00424634      0x12c build/time_mcal.o
                0x00424634                parse_time_from_val
 .text$pause_1ms
                0x00424760       0x6c build/clock_general.o
                0x00424760                .weak._pause_1ms._clock_is_valid_config
 .text$pause_1ms
                0x004247cc       0x6c build/clock_mcal.o
                0x004247cc                pause_1ms
 .text$pause_1us
                0x00424838       0x6c build/clock_mcal.o
                0x00424838                pause_1us
 .text$pc_clock_get_ms
                0x004248a4       0x48 build/clock_mcal.o
                0x004248a4                pc_clock_get_ms
 .text$pc_clock_get_us
                0x004248ec       0x6c build/clock_mcal.o
                0x004248ec                pc_clock_get_us
 .text$pring_gcc_info
                0x00424958      0x1c4 build/debug_info.o
 .text$print_app_info
                0x00424b1c       0x14 build/debug_info.o
 .text$print_array
                0x00424b30       0xb4 build/debug_info.o
                0x00424b30                print_array
 .text$print_ascii_line
                0x00424be4      0x120 build/debug_info.o
                0x00424be4                print_ascii_line
 .text$print_author
                0x00424d04       0xc4 build/debug_info.o
 .text$print_binary
                0x00424dc8      0x100 build/debug_info.o
                0x00424dc8                print_binary
 .text$print_bit_hint
                0x00424ec8      0x148 build/debug_info.o
                0x00424ec8                print_bit_hint
 .text$print_bit_representation
                0x00425010      0x1b8 build/debug_info.o
                0x00425010                print_bit_representation
 .text$print_buf_get
                0x004251c8        0x8 build/print_buffer.o
                0x004251c8                print_buf_get
 .text$print_buf_ostream
                0x004251d0        0x8 build/print_buffer.o
                0x004251d0                print_buf_ostream
 .text$print_buf_reset
                0x004251d8       0x34 build/print_buffer.o
                0x004251d8                print_buf_reset
 .text$print_build_time
                0x0042520c      0x100 build/debug_info.o
 .text$print_compiler_version
                0x0042530c      0x130 build/debug_info.o
 .text$print_format_dbl
                0x0042543c      0x124 build/print_format.o
 .text$print_format_dbl_1
                0x00425560       0x54 build/print_format.o
                0x00425560                print_format_dbl_1
 .text$print_format_dbl_2
                0x004255b4       0x64 build/print_format.o
                0x004255b4                print_format_dbl_2
 .text$print_format_dbl_3
                0x00425618       0x78 build/print_format.o
                0x00425618                print_format_dbl_3
 .text$print_format_flt
                0x00425690      0x100 build/print_format.o
 .text$print_format_flt_1
                0x00425790       0x44 build/print_format.o
                0x00425790                print_format_flt_1
 .text$print_format_flt_2
                0x004257d4       0x44 build/print_format.o
                0x004257d4                print_format_flt_2
 .text$print_format_flt_3
                0x00425818       0x44 build/print_format.o
                0x00425818                print_format_flt_3
 .text$print_format_s32
                0x0042585c       0xe4 build/print_format.o
 .text$print_format_s32_1
                0x00425940       0x44 build/print_format.o
                0x00425940                print_format_s32_1
 .text$print_format_s32_2
                0x00425984       0x44 build/print_format.o
                0x00425984                print_format_s32_2
 .text$print_format_s32_3
                0x004259c8       0x44 build/print_format.o
                0x004259c8                print_format_s32_3
 .text$print_format_s64
                0x00425a0c      0x168 build/print_format.o
 .text$print_format_s64_1
                0x00425b74       0x6c build/print_format.o
                0x00425b74                print_format_s64_1
 .text$print_format_s64_2
                0x00425be0       0x7c build/print_format.o
                0x00425be0                print_format_s64_2
 .text$print_format_s64_3
                0x00425c5c       0x90 build/print_format.o
                0x00425c5c                print_format_s64_3
 .text$print_format_u32
                0x00425cec       0xe4 build/print_format.o
 .text$print_format_u32_1
                0x00425dd0       0x44 build/print_format.o
                0x00425dd0                print_format_u32_1
 .text$print_format_u32_2
                0x00425e14       0x44 build/print_format.o
                0x00425e14                print_format_u32_2
 .text$print_format_u32_3
                0x00425e58       0x44 build/print_format.o
                0x00425e58                print_format_u32_3
 .text$print_format_u64
                0x00425e9c      0x148 build/print_format.o
 .text$print_format_u64_1
                0x00425fe4       0x6c build/print_format.o
                0x00425fe4                print_format_u64_1
 .text$print_format_u64_2
                0x00426050       0x7c build/print_format.o
                0x00426050                print_format_u64_2
 .text$print_format_u64_3
                0x004260cc       0x90 build/print_format.o
                0x004260cc                print_format_u64_3
 .text$print_hex
                0x0042615c       0x1c build/array_diag.o
                0x0042615c                print_hex
 .text$print_hex_ascii_line
                0x00426178      0x174 build/helper.o
                0x00426178                print_hex_ascii_line
 .text$print_hex_buf
                0x004262ec       0xcc build/debug_info.o
                0x004262ec                print_hex_buf
 .text$print_hex_byte
                0x004263b8       0x4c build/helper.o
                0x004263b8                print_hex_byte
 .text$print_hex_dword
                0x00426404       0xe4 build/helper.o
                0x00426404                print_hex_dword
 .text$print_hex_word
                0x004264e8       0x88 build/helper.o
                0x004264e8                print_hex_word
 .text$print_hw_version
                0x00426570       0xa8 build/debug_info.o
 .text$print_indent
                0x00426618       0x5c build/debug_info.o
                0x00426618                print_indent
 .text$print_mem
                0x00426674       0x64 build/array_diag.o
                0x00426674                print_mem
 .text$print_mem_ascii
                0x004266d8       0x68 build/debug_info.o
                0x004266d8                print_mem_ascii
 .text$print_offset
                0x00426740       0x5c build/debug_info.o
 .text$print_prog_type
                0x0042679c      0x104 build/debug_info.o
 .text$print_progress
                0x004268a0       0x44 build/common_diag.o
                0x004268a0                print_progress
 .text$print_sw_version
                0x004268e4      0x100 build/debug_info.o
 .text$print_sys_info
                0x004269e4      0x124 build/debug_info.o
                0x004269e4                print_sys_info
 .text$print_sysinfo
                0x00426b08       0x24 build/debug_info.o
                0x00426b08                print_sysinfo
 .text$print_time
                0x00426b2c       0x54 build/time_diag.o
                0x00426b2c                print_time
 .text$print_time_date
                0x00426b80       0xbc build/time_diag.o
                0x00426b80                print_time_date
 .text$print_version
                0x00426c3c       0x60 build/debug_info.o
                0x00426c3c                print_version
 .text$printf   0x00426c9c       0x2c build/writer_stdout.o
 .text$printf   0x00426cc8       0x2c build/helper.o
 .text$printf   0x00426cf4       0x2c build/debug_info.o
 .text$printf   0x00426d20       0x2c build/test_fifo_char.o
 .text$printf   0x00426d4c       0x2c build/test_sw_list.o
 .text$proc_strtod
                0x00426d78      0x4e8 build/convert.o
 .text$protocol_check_flow_control
                0x00427260      0x1a4 build/protocol.o
                0x00427260                protocol_check_flow_control
 .text$protocol_check_flow_duplicat
                0x00427404       0x7c build/protocol.o
 .text$protocol_check_flow_lost_packets
                0x00427480       0xf4 build/protocol.o
 .text$protocol_check_flow_ok
                0x00427574       0xac build/protocol.o
 .text$protocol_check_flow_order_reverse
                0x00427620       0x70 build/protocol.o
 .text$protocol_flow_init
                0x00427690       0x44 build/protocol.o
                0x00427690                protocol_flow_init
 .text$putsw    0x004276d4       0xe8 build/oprintf.o
 .text$rad_2_deg
                0x004277bc       0x4c build/utils_math.o
                0x004277bc                rad_2_deg
 .text$rad_to_deg_f
                0x00427808       0x4c build/utils_math.o
                0x00427808                rad_to_deg_f
 .text$read_addr_16bit
                0x00427854       0x54 build/debugger.o
                0x00427854                read_addr_16bit
 .text$read_addr_32bit
                0x004278a8       0x54 build/debugger.o
                0x004278a8                read_addr_32bit
 .text$read_addr_64bit
                0x004278fc       0x40 build/debugger.o
                0x004278fc                read_addr_64bit
 .text$read_addr_8bit
                0x0042793c       0x58 build/debugger.o
                0x0042793c                read_addr_8bit
 .text$read_register
                0x00427994       0x28 build/debugger.o
                0x00427994                read_register
 .text$read_register_command
                0x004279bc       0xe0 build/debugger_commands.o
                0x004279bc                read_register_command
 .text$replaceFirstOccurrence
                0x00427a9c       0xf8 build/str_utils_ex.o
                0x00427a9c                replaceFirstOccurrence
 .text$replace_char
                0x00427b94       0x64 build/str_utils.o
                0x00427b94                replace_char
 .text$replace_substring
                0x00427bf8      0x238 build/str_utils_ex.o
                0x00427bf8                replace_substring
 .text$replace_substring_first
                0x00427e30      0x240 build/str_utils_ex.o
                0x00427e30                replace_substring_first
 .text$reverse_bits_static
                0x00428070       0x88 build/bit_utils.o
                0x00428070                reverse_bits_static
 .text$reverse_byte_order_array
                0x004280f8       0x90 build/byte_utils.o
                0x004280f8                reverse_byte_order_array
 .text$reverse_byte_order_int24
                0x00428188       0x34 build/byte_utils.o
                0x00428188                reverse_byte_order_int24
 .text$reverse_byte_order_uint16
                0x004281bc       0x34 build/word_utils.o
                0x004281bc                reverse_byte_order_uint16
 .text$reverse_byte_order_uint24
                0x004281f0       0x44 build/byte_utils.o
                0x004281f0                reverse_byte_order_uint24
 .text$reverse_byte_order_uint32
                0x00428234       0x60 build/dword_utils.o
                0x00428234                reverse_byte_order_uint32
 .text$reverse_byte_order_uint64
                0x00428294      0x100 build/qword_utils.o
                0x00428294                reverse_byte_order_uint64
 .text$reverse_half_word_order_uint32
                0x00428394       0x30 build/byte_utils.o
                0x00428394                reverse_half_word_order_uint32
 .text$rx_dtoa  0x004283c4       0x1c build/num_to_str.o
                0x004283c4                rx_dtoa
 .text$rx_ftoa  0x004283e0        0x8 build/num_to_str.o
                0x004283e0                rx_ftoa
 .text$rx_ltoa32
                0x004283e8       0x48 build/num_to_str.o
                0x004283e8                rx_ltoa32
 .text$rx_ltoa64
                0x00428430       0x60 build/num_to_str.o
                0x00428430                rx_ltoa64
 .text$rx_strtok_r
                0x00428490       0x90 build/str_utils.o
                0x00428490                rx_strtok_r
 .text$rx_utoa32
                0x00428520       0x48 build/num_to_str.o
                0x00428520                rx_utoa32
 .text$rx_utoa64
                0x00428568       0x60 build/num_to_str.o
                0x00428568                rx_utoa64
 .text$scheduler_all_run_time_us
                0x004285c8       0x80 build/scheduler_mcal.o
                0x004285c8                scheduler_all_run_time_us
 .text$scheduler_ctrl_command
                0x00428648      0x158 build/scheduler_commands.o
                0x00428648                scheduler_ctrl_command
 .text$scheduler_diag
                0x004287a0      0x480 build/scheduler_diag.o
                0x004287a0                scheduler_diag
 .text$scheduler_diag_command
                0x00428c20      0x1a8 build/scheduler_commands.o
                0x00428c20                scheduler_diag_command
 .text$scheduler_diag_period
                0x00428dc8      0x7c0 build/scheduler_diag.o
                0x00428dc8                scheduler_diag_period
 .text$scheduler_diag_period_command
                0x00429588      0x1a0 build/scheduler_commands.o
                0x00429588                scheduler_diag_period_command
 .text$scheduler_diag_run
                0x00429728      0x560 build/scheduler_diag.o
                0x00429728                scheduler_diag_run
 .text$scheduler_diag_run_command
                0x00429c88      0x1a0 build/scheduler_commands.o
                0x00429c88                scheduler_diag_run_command
 .text$scheduler_get_cnt
                0x00429e28       0x2c build/scheduler_config.o
                0x00429e28                scheduler_get_cnt
 .text$scheduler_get_task_cnt
                0x00429e54       0x40 build/scheduler_mcal.o
                0x00429e54                scheduler_get_task_cnt
 .text$scheduler_init_command
                0x00429e94       0x38 build/scheduler_commands.o
                0x00429e94                scheduler_init_command
 .text$scheduler_init_custom
                0x00429ecc       0x28 build/scheduler_mcal.o
 .text$scheduler_init_one
                0x00429ef4      0x1d8 build/scheduler_mcal.o
 .text$scheduler_mcal_init
                0x0042a0cc       0x84 build/scheduler_mcal.o
                0x0042a0cc                scheduler_mcal_init
 .text$scheduler_proc_one_stamp
                0x0042a150       0xcc build/scheduler_mcal.o
                0x0042a150                scheduler_proc_one_stamp
 .text$scheduler_task_period_command
                0x0042a21c      0x208 build/scheduler_commands.o
                0x0042a21c                scheduler_task_period_command
 .text$scheduler_task_period_get
                0x0042a424       0x60 build/scheduler_mcal.o
                0x0042a424                scheduler_task_period_get
 .text$scheduler_task_period_set
                0x0042a484       0xa4 build/scheduler_mcal.o
                0x0042a484                scheduler_task_period_set
 .text$sec_to_msec
                0x0042a528       0x1c build/time_mcal.o
                0x0042a528                sec_to_msec
 .text$sec_to_usec
                0x0042a544       0xac build/time_mcal.o
                0x0042a544                sec_to_usec
 .text$serial_num_to_port_com
                0x0042a5f0       0x40 build/serial_port.o
                0x0042a5f0                serial_num_to_port_com
 .text$serial_port_check
                0x0042a630      0x1c0 build/serial_port.o
                0x0042a630                serial_port_check
 .text$serial_port_close
                0x0042a7f0       0x90 build/serial_port.o
                0x0042a7f0                serial_port_close
 .text$serial_port_com_to_num
                0x0042a880       0x9c build/serial_port.o
                0x0042a880                serial_port_com_to_num
 .text$serial_port_config_command
                0x0042a91c       0xcc build/serial_port_commands.o
                0x0042a91c                serial_port_config_command
 .text$serial_port_diag
                0x0042a9e8      0x320 build/serial_port_diag.o
                0x0042a9e8                serial_port_diag
 .text$serial_port_diag_command
                0x0042ad08       0x60 build/serial_port_commands.o
                0x0042ad08                serial_port_diag_command
 .text$serial_port_get_cnt
                0x0042ad68       0x48 build/serial_port_config.o
                0x0042ad68                serial_port_get_cnt
 .text$serial_port_init_command
                0x0042adb0       0xa8 build/serial_port_commands.o
                0x0042adb0                serial_port_init_command
 .text$serial_port_init_common
                0x0042ae58       0x60 build/serial_port.o
 .text$serial_port_init_custom
                0x0042aeb8       0x50 build/serial_port.o
                0x0042aeb8                serial_port_init_custom
 .text$serial_port_init_one
                0x0042af08      0x114 build/serial_port.o
                0x0042af08                serial_port_init_one
 .text$serial_port_mcal_init
                0x0042b01c       0x84 build/serial_port.o
                0x0042b01c                serial_port_mcal_init
 .text$serial_port_proc
                0x0042b0a0       0x84 build/serial_port.o
                0x0042b0a0                serial_port_proc
 .text$serial_port_proc_one
                0x0042b124      0x10c build/serial_port.o
                0x0042b124                serial_port_proc_one
 .text$serial_port_re_init_one
                0x0042b230      0x29c build/serial_port.o
                0x0042b230                serial_port_re_init_one
 .text$serial_port_scan
                0x0042b4cc      0x15c build/serial_port_diag.o
                0x0042b4cc                serial_port_scan
 .text$serial_port_scan_command
                0x0042b628       0xe8 build/serial_port_commands.o
                0x0042b628                serial_port_scan_command
 .text$serial_port_scan_ports
                0x0042b710       0xb0 build/serial_port.o
                0x0042b710                serial_port_scan_ports
 .text$serial_port_send
                0x0042b7c0       0xd8 build/serial_port.o
                0x0042b7c0                serial_port_send
 .text$serial_port_send_command
                0x0042b898      0x1a0 build/serial_port_commands.o
                0x0042b898                serial_port_send_command
 .text$serial_port_send_pause
                0x0042ba38      0x21c build/serial_port.o
 .text$serial_port_set_params
                0x0042bc54       0x90 build/serial_port.o
 .text$serial_port_set_timeout
                0x0042bce4       0x78 build/serial_port.o
 .text$set_log_level
                0x0042bd5c       0x5c build/log.o
                0x0042bd5c                set_log_level
 .text$set_log_level_all
                0x0042bdb8       0x48 build/log.o
 .text$skip_prefix_spaces
                0x0042be00       0x60 build/convert.o
 .text$spot_change
                0x0042be60       0x34 build/utils_math.o
                0x0042be60                spot_change
 .text$sprintf  0x0042be94       0x34 build/convert_diag.o
 .text$sprintf  0x0042bec8       0x34 build/protocol_diag.o
 .text$sprintf  0x0042befc       0x34 build/csv.o
 .text$sprintf  0x0042bf30       0x34 build/test_math.o
 .text$sprintf  0x0042bf64       0x34 build/test_convert.o
 .text$sprintf  0x0042bf98       0x34 build/test_libc.o
 .text$sprintf  0x0042bfcc       0x34 build/test_sw_list.o
 .text$sprintf  0x0042c000       0x34 build/time_diag.o
 .text$sr_arrows_parse
                0x0042c034       0x64 build/string_reader.o
 .text$stack_dir
                0x0042c098       0x50 build/debug_info.o
 .text$stdio_send
                0x0042c0e8       0x3c build/writer_stdout.o
                0x0042c0e8                stdio_send
 .text$stdout_putc
                0x0042c124       0x28 build/writer_stdout.o
                0x0042c124                stdout_putc
 .text$stdout_puts
                0x0042c14c       0x58 build/writer_stdout.o
                0x0042c14c                stdout_puts
 .text$stdout_writer_transmit
                0x0042c1a4       0xe4 build/writer_stdout.o
                0x0042c1a4                stdout_writer_transmit
 .text$storage_data_to_float
                0x0042c288      0x1d4 build/storage.o
                0x0042c288                storage_data_to_float
 .text$storage_data_to_value
                0x0042c45c      0x1e8 build/storage.o
                0x0042c45c                storage_data_to_value
 .text$storage_get_cnt
                0x0042c644       0x14 build/storage_config.o
                0x0042c644                storage_get_cnt
 .text$storage_get_id_type
                0x0042c658       0xa4 build/storage.o
                0x0042c658                storage_get_id_type
 .text$storage_get_len
                0x0042c6fc       0x68 build/storage.o
                0x0042c6fc                storage_get_len
 .text$storage_get_type
                0x0042c764       0x78 build/storage.o
                0x0042c764                storage_get_type
 .text$storage_get_type_len
                0x0042c7dc       0xa4 build/storage.o
                0x0042c7dc                storage_get_type_len
 .text$storage_proc_cmd
                0x0042c880      0x108 build/storage.o
                0x0042c880                storage_proc_cmd
 .text$storage_scale_to_factor
                0x0042c988       0x38 build/storage.o
                0x0042c988                storage_scale_to_factor
 .text$storage_units_to_physical_quantity
                0x0042c9c0      0x24c build/storage.o
                0x0042c9c0                storage_units_to_physical_quantity
 .text$str2facility
                0x0042cc0c       0x68 build/log_diag.o
                0x0042cc0c                str2facility
 .text$str2level
                0x0042cc74      0x298 build/log_diag.o
                0x0042cc74                str2level
 .text$str2uppercase
                0x0042cf0c       0x84 build/str_utils.o
                0x0042cf0c                str2uppercase
 .text$str_case_str
                0x0042cf90      0x108 build/str_utils.o
                0x0042cf90                str_case_str
 .text$str_del_char_inplace
                0x0042d098       0xf4 build/str_utils.o
                0x0042d098                str_del_char_inplace
 .text$str_del_substr_inplace
                0x0042d18c      0x128 build/str_utils.o
                0x0042d18c                str_del_substr_inplace
 .text$str_del_substr_inplace_firts
                0x0042d2b4      0x13c build/str_utils.o
                0x0042d2b4                str_del_substr_inplace_firts
 .text$str_delete_first
                0x0042d3f0       0xc8 build/str_utils.o
                0x0042d3f0                str_delete_first
 .text$str_embrace
                0x0042d4b8       0x74 build/str_utils.o
                0x0042d4b8                str_embrace
 .text$str_limit
                0x0042d52c       0x98 build/str_utils.o
                0x0042d52c                str_limit
 .text$str_trim
                0x0042d5c4       0xb0 build/str_utils.o
                0x0042d5c4                str_trim
 .text$strcmp_custon
                0x0042d674       0xb0 build/str_utils.o
                0x0042d674                strcmp_custon
 .text$string_delete_continuous_duplicat
                0x0042d724      0x134 build/str_utils.o
                0x0042d724                string_delete_continuous_duplicat
 .text$string_delete_end
                0x0042d858      0x110 build/str_utils.o
                0x0042d858                string_delete_end
 .text$string_putc
                0x0042d968       0x84 build/writer.o
                0x0042d968                string_putc
 .text$string_puts
                0x0042d9ec       0x58 build/writer.o
                0x0042d9ec                string_puts
 .text$string_reader_echo_putchar
                0x0042da44       0xb4 build/string_reader.o
 .text$string_reader_get_cnt
                0x0042daf8       0x48 build/string_reader_config.o
                0x0042daf8                string_reader_get_cnt
 .text$string_reader_init_chache
                0x0042db40       0xe8 build/string_reader.o
 .text$string_reader_init_custom
                0x0042dc28       0x14 build/string_reader.o
 .text$string_reader_init_one
                0x0042dc3c      0x13c build/string_reader.o
                0x0042dc3c                string_reader_init_one
 .text$string_reader_is_valid_char
                0x0042dd78       0x88 build/string_reader.o
 .text$string_reader_mcal_init
                0x0042de00       0x84 build/string_reader.o
                0x0042de00                string_reader_mcal_init
 .text$string_reader_proc
                0x0042de84       0x84 build/string_reader.o
                0x0042de84                string_reader_proc
 .text$string_reader_proc_custom
                0x0042df08       0x14 build/string_reader.o
                0x0042df08                .weak._string_reader_proc_custom._StringReaderGetConfig
 .text$string_reader_proc_enter
                0x0042df1c      0x1b8 build/string_reader.o
 .text$string_reader_proc_one
                0x0042e0d4      0x49c build/string_reader.o
                0x0042e0d4                string_reader_proc_one
 .text$string_reader_proc_rx_byte
                0x0042e570       0x84 build/string_reader.o
                0x0042e570                string_reader_proc_rx_byte
 .text$string_reader_reset_one
                0x0042e5f4       0x68 build/string_reader.o
                0x0042e5f4                string_reader_reset_one
 .text$string_reader_rx_byte
                0x0042e65c       0x5c build/string_reader.o
                0x0042e65c                string_reader_rx_byte
 .text$string_reader_rx_character
                0x0042e6b8       0x68 build/string_reader.o
                0x0042e6b8                string_reader_rx_character
 .text$string_reader_secure_ctrl
                0x0042e720       0x4c build/string_reader.o
                0x0042e720                string_reader_secure_ctrl
 .text$string_reader_writer_ctrl
                0x0042e76c       0x44 build/string_reader.o
 .text$strrepl  0x0042e7b0       0x4c build/str_utils.o
                0x0042e7b0                strrepl
 .text$sum_calc_u8
                0x0042e7fc       0x48 build/utils_math.o
                0x0042e7fc                sum_calc_u8
 .text$super_cycle_check_continuity
                0x0042e844       0xbc build/super_cycle.o
                0x0042e844                super_cycle_check_continuity
 .text$super_cycle_core_to_num
                0x0042e900       0x14 build/super_cycle.o
                0x0042e900                super_cycle_core_to_num
 .text$super_cycle_diag
                0x0042e914      0x414 build/super_cycle_diag.o
                0x0042e914                super_cycle_diag
 .text$super_cycle_diag_command
                0x0042ed28       0x18 build/super_cycle_commands.o
                0x0042ed28                super_cycle_diag_command
 .text$super_cycle_get_cnt
                0x0042ed40       0x48 build/super_cycle_config.o
                0x0042ed40                super_cycle_get_cnt
 .text$super_cycle_init_command
                0x0042ed88       0x24 build/super_cycle_commands.o
                0x0042ed88                super_cycle_init_command
 .text$super_cycle_init_custom
                0x0042edac       0x28 build/super_cycle.o
 .text$super_cycle_init_one
                0x0042edd4      0x170 build/super_cycle.o
                0x0042edd4                super_cycle_init_one
 .text$super_cycle_iteration_sleep_command
                0x0042ef44       0x80 build/super_cycle_commands.o
                0x0042ef44                super_cycle_iteration_sleep_command
 .text$super_cycle_mcal_init
                0x0042efc4       0x84 build/super_cycle.o
                0x0042efc4                super_cycle_mcal_init
 .text$super_cycle_proc
                0x0042f048       0x84 build/super_cycle.o
                0x0042f048                super_cycle_proc
 .text$super_cycle_proc_ll
                0x0042f0cc       0x3c build/common_functions.o
                0x0042f0cc                super_cycle_proc_ll
 .text$super_cycle_proc_max_perf
                0x0042f108       0x14 build/super_cycle.o
                0x0042f108                .weak._super_cycle_proc_max_perf._SuperCycleGetNode
 .text$super_cycle_proc_one
                0x0042f11c      0x164 build/super_cycle.o
                0x0042f11c                super_cycle_proc_one
 .text$super_cycle_run_time_us
                0x0042f280       0x70 build/super_cycle.o
                0x0042f280                super_cycle_run_time_us
 .text$super_cycle_start_one
                0x0042f2f0       0x40 build/super_cycle.o
                0x0042f2f0                super_cycle_start_one
 .text$sw_pause_ms
                0x0042f330       0x5c build/clock_mcal.o
                0x0042f330                sw_pause_ms
 .text$swap16   0x0042f38c       0x18 build/data_utils.o
                0x0042f38c                swap16
 .text$swap32   0x0042f3a4       0x30 build/data_utils.o
                0x0042f3a4                swap32
 .text$swap8    0x0042f3d4       0x48 build/data_utils.o
                0x0042f3d4                swap8
 .text$swap_16  0x0042f41c       0x4c build/data_utils.o
                0x0042f41c                swap_16
 .text$swap_bits_u16
                0x0042f468       0x48 build/bit_utils.o
                0x0042f468                swap_bits_u16
 .text$swap_bits_u32
                0x0042f4b0       0x70 build/bit_utils.o
                0x0042f4b0                swap_bits_u32
 .text$swap_bits_u32_f
                0x0042f520       0x60 build/bit_utils.o
                0x0042f520                swap_bits_u32_f
 .text$swap_bits_u64
                0x0042f580       0xfc build/bit_utils.o
                0x0042f580                swap_bits_u64
 .text$swap_bits_u64_v2
                0x0042f67c       0xd0 build/bit_utils.o
                0x0042f67c                swap_bits_u64_v2
 .text$swap_bits_u8
                0x0042f74c       0x60 build/bit_utils.o
                0x0042f74c                swap_bits_u8
 .text$swap_bits_u8_2
                0x0042f7ac       0x9c build/bit_utils.o
                0x0042f7ac                swap_bits_u8_2
 .text$swap_bits_u8_fast
                0x0042f848       0x4c build/bit_utils.o
                0x0042f848                swap_bits_u8_fast
 .text$swap_bits_u8_slow
                0x0042f894       0x88 build/bit_utils.o
                0x0042f894                swap_bits_u8_slow
 .text$swap_f   0x0042f91c       0x44 build/data_utils.o
                0x0042f91c                swap_f
 .text$swap_nibbles
                0x0042f960       0x30 build/byte_utils.o
                0x0042f960                swap_nibbles
 .text$swap_u32_xor
                0x0042f990       0x5c build/data_utils.o
                0x0042f990                swap_u32_xor
 .text$sys_init_is_uniq_node
                0x0042f9ec       0x70 build/system.o
 .text$sysrem_pre_init
                0x0042fa5c       0x28 build/system.o
                0x0042fa5c                sysrem_pre_init
 .text$system_diag
                0x0042fa84       0x4c build/system_diag.o
                0x0042fa84                system_diag
 .text$system_get_prog_type
                0x0042fad0       0x14 build/system.o
                0x0042fad0                system_get_prog_type
 .text$system_init_array_uniq
                0x0042fae4       0xac build/system.o
                0x0042fae4                system_init_array_uniq
 .text$system_init_get_cnt
                0x0042fb90       0x1c build/system.o
                0x0042fb90                system_init_get_cnt
 .text$system_init_one
                0x0042fbac      0x1e8 build/system.o
                0x0042fbac                system_init_one
 .text$system_mcal_init
                0x0042fd94       0x34 build/system.o
                0x0042fd94                system_mcal_init
 .text$table_cap
                0x0042fdc8       0x54 build/table_utils.o
                0x0042fdc8                table_cap
 .text$table_header
                0x0042fe1c       0x70 build/table_utils.o
                0x0042fe1c                table_header
 .text$table_row
                0x0042fe8c      0x104 build/table_utils.o
 .text$table_row_bottom
                0x0042ff90       0x38 build/table_utils.o
                0x0042ff90                table_row_bottom
 .text$table_row_hdr
                0x0042ffc8      0x200 build/table_utils.o
 .text$table_row_header
                0x004301c8       0x38 build/table_utils.o
                0x004301c8                table_row_header
 .text$table_row_separator
                0x00430200       0x38 build/table_utils.o
                0x00430200                table_row_separator
 .text$table_row_top
                0x00430238       0x38 build/table_utils.o
                0x00430238                table_row_top
 .text$test_64bit_mult
                0x00430270      0x328 build/test_sw_list.o
                0x00430270                test_64bit_mult
 .text$test_array
                0x00430598      0x27c build/test_sw_list.o
                0x00430598                test_array
 .text$test_array_add_front
                0x00430814      0x17c build/test_array.o
                0x00430814                test_array_add_front
 .text$test_array_bit_to_hex
                0x00430990      0x658 build/test_array.o
                0x00430990                test_array_bit_to_hex
 .text$test_array_con_pat
                0x00430fe8      0x1ac build/test_array.o
                0x00430fe8                test_array_con_pat
 .text$test_array_i8_mult
                0x00431194      0x4f8 build/test_array.o
                0x00431194                test_array_i8_mult
 .text$test_array_i8_mult_sum
                0x0043168c      0x2cc build/test_array.o
                0x0043168c                test_array_i8_mult_sum
 .text$test_array_index
                0x00431958      0x828 build/test_array.o
                0x00431958                test_array_index
 .text$test_array_init
                0x00432180      0x400 build/test_sw_list.o
                0x00432180                test_array_init
 .text$test_array_insert_first
                0x00432580      0x274 build/test_array.o
                0x00432580                test_array_insert_first
 .text$test_array_shift_right
                0x004327f4      0x5b4 build/test_array.o
                0x004327f4                test_array_shift_right
 .text$test_binary_coded_decimal_to_float
                0x00432da8      0x600 build/float_test.o
                0x00432da8                test_binary_coded_decimal_to_float
 .text$test_bit_fields
                0x004333a8      0x150 build/test_sw_list.o
                0x004333a8                test_bit_fields
 .text$test_bit_shift
                0x004334f8      0x130 build/test_sw_list.o
                0x004334f8                test_bit_shift
 .text$test_c_types
                0x00433628     0x1e50 build/test_sw_list.o
                0x00433628                test_c_types
 .text$test_components
                0x00435478      0x1c0 build/unit_test.o
                0x00435478                test_components
 .text$test_convert_Ltoa32
                0x00435638      0x290 build/test_convert.o
                0x00435638                test_convert_Ltoa32
 .text$test_convert_Ltoa32_
                0x004358c8      0x77c build/test_convert.o
                0x004358c8                test_convert_Ltoa32_
 .text$test_convert_Ltoa64
                0x00436044      0x274 build/test_convert.o
                0x00436044                test_convert_Ltoa64
 .text$test_convert_Ltoa64_
                0x004362b8      0x79c build/test_convert.o
                0x004362b8                test_convert_Ltoa64_
 .text$test_convert_ULtoa32
                0x00436a54      0x140 build/test_convert.o
                0x00436a54                test_convert_ULtoa32
 .text$test_convert_ULtoa32_
                0x00436b94      0x4f8 build/test_convert.o
                0x00436b94                test_convert_ULtoa32_
 .text$test_convert_ULtoa64
                0x0043708c      0x140 build/test_convert.o
                0x0043708c                test_convert_ULtoa64
 .text$test_convert_ULtoa64_
                0x004371cc      0x4ec build/test_convert.o
                0x004371cc                test_convert_ULtoa64_
 .text$test_convert_ULtoa_hex32
                0x004376b8      0x1c0 build/test_convert.o
                0x004376b8                test_convert_ULtoa_hex32
 .text$test_convert_ULtoa_hex64
                0x00437878      0x1d8 build/test_convert.o
                0x00437878                test_convert_ULtoa_hex64
 .text$test_convert_assemble_uint32
                0x00437a50      0x260 build/test_convert.o
                0x00437a50                test_convert_assemble_uint32
 .text$test_convert_bool2name
                0x00437cb0      0x2e4 build/test_convert.o
                0x00437cb0                test_convert_bool2name
 .text$test_convert_char_2_dec
                0x00437f94      0xd2c build/test_convert.o
                0x00437f94                test_convert_char_2_dec
 .text$test_convert_dtoa
                0x00438cc0     0x10b0 build/test_convert.o
                0x00438cc0                test_convert_dtoa
 .text$test_convert_dtoa_inf
                0x00439d70       0xf4 build/test_convert.o
                0x00439d70                test_convert_dtoa_inf
 .text$test_convert_dtoa_nan
                0x00439e64       0xf4 build/test_convert.o
                0x00439e64                test_convert_dtoa_nan
 .text$test_convert_dtoa_trim_zero
                0x00439f58      0x110 build/test_convert.o
                0x00439f58                test_convert_dtoa_trim_zero
 .text$test_convert_ftoa_inf
                0x0043a068       0xf4 build/test_convert.o
                0x0043a068                test_convert_ftoa_inf
 .text$test_convert_ftoa_nan
                0x0043a15c       0xf4 build/test_convert.o
                0x0043a15c                test_convert_ftoa_nan
 .text$test_convert_is_dec_str
                0x0043a250      0x210 build/test_convert.o
                0x0043a250                test_convert_is_dec_str
 .text$test_convert_is_hex_str
                0x0043a460      0x5a4 build/test_convert.o
                0x0043a460                test_convert_is_hex_str
 .text$test_convert_ltoa_hex64
                0x0043aa04      0x160 build/test_convert.o
                0x0043aa04                test_convert_ltoa_hex64
 .text$test_convert_rx_dtoa
                0x0043ab64       0xc4 build/test_convert.o
                0x0043ab64                test_convert_rx_dtoa
 .text$test_convert_str_sizeof
                0x0043ac28       0xfc build/test_convert.o
                0x0043ac28                test_convert_str_sizeof
 .text$test_convert_try_str2array
                0x0043ad24      0x4b8 build/test_convert.o
                0x0043ad24                test_convert_try_str2array
 .text$test_convert_try_str2bool
                0x0043b1dc      0x860 build/test_convert.o
                0x0043b1dc                test_convert_try_str2bool
 .text$test_convert_try_str2double
                0x0043ba3c     0x14fc build/test_convert.o
                0x0043ba3c                test_convert_try_str2double
 .text$test_convert_try_str2float
                0x0043cf38     0x1a34 build/test_convert.o
                0x0043cf38                test_convert_try_str2float
 .text$test_convert_try_str2int16
                0x0043e96c      0x5cc build/test_convert.o
                0x0043e96c                test_convert_try_str2int16
 .text$test_convert_try_str2int32
                0x0043ef38      0xd10 build/test_convert.o
                0x0043ef38                test_convert_try_str2int32
 .text$test_convert_try_str2int64
                0x0043fc48      0xa24 build/test_convert.o
                0x0043fc48                test_convert_try_str2int64
 .text$test_convert_try_str2int8
                0x0044066c      0x61c build/test_convert.o
                0x0044066c                test_convert_try_str2int8
 .text$test_convert_try_str2lint32
                0x00440c88     0x14a8 build/test_convert.o
                0x00440c88                test_convert_try_str2lint32
 .text$test_convert_try_str2lint64
                0x00442130      0x2b0 build/test_convert.o
                0x00442130                test_convert_try_str2lint64
 .text$test_convert_try_str2luint32
                0x004423e0      0x708 build/test_convert.o
                0x004423e0                test_convert_try_str2luint32
 .text$test_convert_try_str2luint32_hex
                0x00442ae8      0x3a4 build/test_convert.o
                0x00442ae8                test_convert_try_str2luint32_hex
 .text$test_convert_try_str2luint64
                0x00442e8c      0x2dc build/test_convert.o
                0x00442e8c                test_convert_try_str2luint64
 .text$test_convert_try_str2number
                0x00443168      0xa68 build/test_convert.o
                0x00443168                test_convert_try_str2number
 .text$test_convert_try_str2uint16
                0x00443bd0      0x5f4 build/test_convert.o
                0x00443bd0                test_convert_try_str2uint16
 .text$test_convert_try_str2uint32
                0x004441c4      0x5e8 build/test_convert.o
                0x004441c4                test_convert_try_str2uint32
 .text$test_convert_try_str2uint32_hex
                0x004447ac      0x2e8 build/test_convert.o
                0x004447ac                test_convert_try_str2uint32_hex
 .text$test_convert_try_str2uint64
                0x00444a94      0xb24 build/test_convert.o
                0x00444a94                test_convert_try_str2uint64
 .text$test_convert_try_str2uint8
                0x004455b8      0x574 build/test_convert.o
                0x004455b8                test_convert_try_str2uint8
 .text$test_convert_try_str2uint8_invalid
                0x00445b2c      0x190 build/test_convert.o
                0x00445b2c                test_convert_try_str2uint8_invalid
 .text$test_convert_try_str_ascii2nimble
                0x00445cbc     0x21d0 build/test_convert.o
                0x00445cbc                test_convert_try_str_ascii2nimble
 .text$test_convert_try_strl2double
                0x00447e8c      0x188 build/test_convert.o
                0x00447e8c                test_convert_try_strl2double
 .text$test_convert_try_strl2uint16_hex
                0x00448014      0x798 build/test_convert.o
                0x00448014                test_convert_try_strl2uint16_hex
 .text$test_convert_try_strl2uint8_hex
                0x004487ac      0x524 build/test_convert.o
                0x004487ac                test_convert_try_strl2uint8_hex
 .text$test_convert_utoa_bin16
                0x00448cd0      0x300 build/test_convert.o
                0x00448cd0                test_convert_utoa_bin16
 .text$test_convert_utoa_bin16_plain
                0x00448fd0      0x300 build/test_convert.o
                0x00448fd0                test_convert_utoa_bin16_plain
 .text$test_convert_utoa_bin24
                0x004492d0      0x2e4 build/test_convert.o
                0x004492d0                test_convert_utoa_bin24
 .text$test_convert_utoa_bin32
                0x004495b4      0x2e4 build/test_convert.o
                0x004495b4                test_convert_utoa_bin32
 .text$test_count_substring
                0x00449898      0x10c build/test_string_utils.o
                0x00449898                test_count_substring
 .text$test_csv_cnt
                0x004499a4      0x82c build/test_csv.o
                0x004499a4                test_csv_cnt
 .text$test_csv_cnt_perf
                0x0044a1d0      0x260 build/test_csv.o
                0x0044a1d0                test_csv_cnt_perf
 .text$test_csv_fetch_text
                0x0044a430      0x214 build/test_csv.o
                0x0044a430                test_csv_fetch_text
 .text$test_csv_fetch_text_perf
                0x0044a644      0x3c4 build/test_csv.o
                0x0044a644                test_csv_fetch_text_perf
 .text$test_csv_fetch_text_zeros
                0x0044aa08      0x254 build/test_csv.o
                0x0044aa08                test_csv_fetch_text_zeros
 .text$test_csv_parse_double
                0x0044ac5c      0x604 build/test_csv.o
                0x0044ac5c                test_csv_parse_double
 .text$test_csv_parse_last_text
                0x0044b260      0x200 build/test_csv.o
                0x0044b260                test_csv_parse_last_text
 .text$test_csv_parse_text
                0x0044b460      0x8fc build/test_csv.o
                0x0044b460                test_csv_parse_text
 .text$test_csv_parse_text_overflow
                0x0044bd5c       0xe8 build/test_csv.o
                0x0044bd5c                test_csv_parse_text_overflow
 .text$test_csv_strlen_perf
                0x0044be44      0x250 build/test_csv.o
                0x0044be44                test_csv_strlen_perf
 .text$test_date_parse_rus
                0x0044c094      0x39c build/test_time_utils.o
                0x0044c094                test_date_parse_rus
 .text$test_date_utils_1
                0x0044c430      0x11c build/test_time_utils.o
 .text$test_date_utils_2
                0x0044c54c      0x390 build/test_time_utils.o
 .text$test_delete_char
                0x0044c8dc      0x67c build/test_string_utils.o
                0x0044c8dc                test_delete_char
 .text$test_delete_char_one
                0x0044cf58      0x198 build/test_string_utils.o
 .text$test_delete_substr
                0x0044d0f0      0x20c build/test_string_utils.o
                0x0044d0f0                test_delete_substr
 .text$test_delete_substr_one
                0x0044d2fc      0x1b8 build/test_string_utils.o
 .text$test_double_to_str
                0x0044d4b4      0xc70 build/test_convert.o
                0x0044d4b4                test_double_to_str
 .text$test_double_to_uint16
                0x0044e124      0x264 build/test_sw_list.o
                0x0044e124                test_double_to_uint16
 .text$test_endian
                0x0044e388       0xc4 build/test_sw_list.o
                0x0044e388                test_endian
 .text$test_fifo_2
                0x0044e44c      0x1ac build/test_fifo_char.o
                0x0044e44c                test_fifo_2
 .text$test_fifo_array
                0x0044e5f8     0x16f4 build/test_fifo_array.o
                0x0044e5f8                test_fifo_array
 .text$test_fifo_array_packing
                0x0044fcec      0x460 build/test_fifo_array.o
                0x0044fcec                test_fifo_array_packing
 .text$test_fifo_array_types
                0x0045014c      0x118 build/test_fifo_array.o
                0x0045014c                test_fifo_array_types
 .text$test_fifo_char_array
                0x00450264      0x598 build/test_fifo_char.o
                0x00450264                test_fifo_char_array
 .text$test_fifo_char_array_overrun
                0x004507fc      0x50c build/test_fifo_char.o
                0x004507fc                test_fifo_char_array_overrun
 .text$test_fifo_char_overrun
                0x00450d08     0x1a88 build/test_fifo_char.o
                0x00450d08                test_fifo_char_overrun
 .text$test_fifo_index_add
                0x00452790      0xd30 build/test_fifo_indexer.o
                0x00452790                test_fifo_index_add
 .text$test_fifo_index_continuus_used
                0x004534c0      0x790 build/test_fifo_indexer.o
                0x004534c0                test_fifo_index_continuus_used
 .text$test_fifo_index_free
                0x00453c50      0x820 build/test_fifo_indexer.o
                0x00453c50                test_fifo_index_free
 .text$test_fifo_index_get
                0x00454470      0x854 build/test_fifo_indexer.o
                0x00454470                test_fifo_index_get
 .text$test_fifo_index_init
                0x00454cc4      0x478 build/test_fifo_indexer.o
                0x00454cc4                test_fifo_index_init
 .text$test_float_to_fixed_point
                0x0045513c      0x7d0 build/float_test.o
                0x0045513c                test_float_to_fixed_point
 .text$test_float_utils
                0x0045590c      0x330 build/float_test.o
                0x0045590c                test_float_utils
 .text$test_fraction_to_fixed_point
                0x00455c3c     0x2608 build/float_test.o
                0x00455c3c                test_fraction_to_fixed_point
 .text$test_general
                0x00458244       0x94 build/test_sw_list.o
                0x00458244                test_general
 .text$test_hsnr_to_double
                0x004582d8       0x30 build/float_test.o
                0x004582d8                test_hsnr_to_double
 .text$test_int_overflow
                0x00458308      0x230 build/test_sw_list.o
                0x00458308                test_int_overflow
 .text$test_is_valid
                0x00458538       0x34 build/unit_test.o
                0x00458538                test_is_valid
 .text$test_libc_sprintf_long
                0x0045856c      0x22c build/test_libc.o
                0x0045856c                test_libc_sprintf_long
 .text$test_libc_sprintf_minus
                0x00458798      0x208 build/test_libc.o
                0x00458798                test_libc_sprintf_minus
 .text$test_libc_stdio
                0x004589a0      0x1e4 build/test_libc.o
                0x004589a0                test_libc_stdio
 .text$test_libc_stdio_small_double
                0x00458b84      0x13c build/test_libc.o
                0x00458b84                test_libc_stdio_small_double
 .text$test_libc_stdio_uint64
                0x00458cc0      0x224 build/test_libc.o
                0x00458cc0                test_libc_stdio_uint64
 .text$test_math_double
                0x00458ee4      0x154 build/test_math.o
                0x00458ee4                test_math_double
 .text$test_math_double2
                0x00459038      0x604 build/test_math.o
                0x00459038                test_math_double2
 .text$test_math_period
                0x0045963c      0x40c build/test_math.o
                0x0045963c                test_math_period
 .text$test_math_powi
                0x00459a48      0xd10 build/test_math.o
                0x00459a48                test_math_powi
 .text$test_math_sin
                0x0045a758      0x2d0 build/test_math.o
                0x0045a758                test_math_sin
 .text$test_math_sin_1hz
                0x0045aa28      0x1b8 build/test_math.o
 .text$test_math_vectors_angle
                0x0045abe0      0x4bc build/test_math.o
                0x0045abe0                test_math_vectors_angle
 .text$test_math_vectors_angle_one
                0x0045b09c       0x84 build/test_math.o
 .text$test_math_vectors_angle_one_complex
                0x0045b120       0x84 build/test_math.o
 .text$test_math_vectors_angle_same_abs
                0x0045b1a4      0x20c build/test_math.o
                0x0045b1a4                test_math_vectors_angle_same_abs
 .text$test_math_vectors_angle_same_angle
                0x0045b3b0       0x30 build/test_math.o
                0x0045b3b0                test_math_vectors_angle_same_angle
 .text$test_memcpy
                0x0045b3e0      0x70c build/test_sw_list.o
                0x0045b3e0                test_memcpy
 .text$test_memset
                0x0045baec      0x70c build/test_sw_list.o
                0x0045baec                test_memset
 .text$test_node_to_num
                0x0045c1f8       0x44 build/unit_test.o
                0x0045c1f8                test_node_to_num
 .text$test_null_ptr
                0x0045c23c       0x30 build/test_sw_list.o
                0x0045c23c                test_null_ptr
 .text$test_parse_data_type
                0x0045c26c       0x30 build/test_convert.o
                0x0045c26c                test_parse_data_type
 .text$test_parse_hex_array_after_prefix
                0x0045c29c      0x464 build/test_string_utils.o
 .text$test_pointers
                0x0045c700      0x104 build/test_sw_list.o
                0x0045c700                test_pointers
 .text$test_protocol_diag
                0x0045c804      0x340 build/test_protocol.o
                0x0045c804                test_protocol_diag
 .text$test_protocol_flow_ctrl
                0x0045cb44       0x58 build/test_protocol.o
                0x0045cb44                test_protocol_flow_ctrl
 .text$test_protocol_flow_ctrl2
                0x0045cb9c       0x58 build/test_protocol.o
                0x0045cb9c                test_protocol_flow_ctrl2
 .text$test_protocol_types
                0x0045cbf4       0x58 build/test_protocol.o
                0x0045cbf4                test_protocol_types
 .text$test_replace_char
                0x0045cc4c      0x1d8 build/test_string_utils.o
                0x0045cc4c                test_replace_char
 .text$test_replace_substr
                0x0045ce24      0x920 build/test_string_utils.o
                0x0045ce24                test_replace_substr
 .text$test_replace_substr_first
                0x0045d744      0x1e0 build/test_string_utils.o
                0x0045d744                test_replace_substr_first
 .text$test_snprintf
                0x0045d924      0x1ac build/test_sw_list.o
                0x0045d924                test_snprintf
 .text$test_snprintf_d
                0x0045dad0      0x1e4 build/test_sw_list.o
                0x0045dad0                test_snprintf_d
 .text$test_snprintf_f
                0x0045dcb4      0x1e4 build/test_sw_list.o
                0x0045dcb4                test_snprintf_f
 .text$test_snprintf_small_double
                0x0045de98      0x13c build/test_sw_list.o
                0x0045de98                test_snprintf_small_double
 .text$test_sprintf_long
                0x0045dfd4      0x22c build/test_sw_list.o
                0x0045dfd4                test_sprintf_long
 .text$test_sprintf_minus
                0x0045e200      0x208 build/test_sw_list.o
                0x0045e200                test_sprintf_minus
 .text$test_sprintf_u64
                0x0045e408      0x224 build/test_sw_list.o
                0x0045e408                test_sprintf_u64
 .text$test_sscanf
                0x0045e62c      0x1ec build/test_convert.o
                0x0045e62c                test_sscanf
 .text$test_str_del_substr_inplace_firts
                0x0045e818      0x140 build/test_string_utils.o
                0x0045e818                test_str_del_substr_inplace_firts
 .text$test_str_delete_con_duplicat
                0x0045e958      0x2f4 build/test_string_utils.o
                0x0045e958                test_str_delete_con_duplicat
 .text$test_str_limiter
                0x0045ec4c      0x328 build/test_string_utils.o
                0x0045ec4c                test_str_limiter
 .text$test_string_delete_end
                0x0045ef74      0x6cc build/test_string_utils.o
                0x0045ef74                test_string_delete_end
 .text$test_string_extract
                0x0045f640      0x5c4 build/test_string_utils.o
                0x0045f640                test_string_extract
 .text$test_string_utils_ext
                0x0045fc04       0x98 build/test_string_utils.o
                0x0045fc04                test_string_utils_ext
 .text$test_struct_copy
                0x0045fc9c      0x8ec build/test_sw_list.o
                0x0045fc9c                test_struct_copy
 .text$test_struct_size
                0x00460588      0x6f0 build/test_sw_list.o
                0x00460588                test_struct_size
 .text$test_swap_xor
                0x00460c78      0x294 build/test_sw_list.o
                0x00460c78                test_swap_xor
 .text$test_time_cmp
                0x00460f0c      0x278 build/test_time_utils.o
                0x00460f0c                test_time_cmp
 .text$test_time_mcal
                0x00461184      0x1e8 build/test_time_utils.o
                0x00461184                test_time_mcal
 .text$test_time_mcal_1
                0x0046136c      0x188 build/test_time_utils.o
 .text$test_time_mcal_2
                0x004614f4      0x390 build/test_time_utils.o
 .text$test_time_parse
                0x00461884     0x1024 build/test_time_utils.o
                0x00461884                test_time_parse
 .text$test_time_stamp
                0x004628a8      0x108 build/test_time_utils.o
                0x004628a8                test_time_stamp
 .text$test_time_stamp2
                0x004629b0      0x10c build/test_time_utils.o
                0x004629b0                test_time_stamp2
 .text$test_time_types
                0x00462abc      0x11c build/test_time_utils.o
                0x00462abc                test_time_types
 .text$test_try_str2suffix_number
                0x00462bd8      0x4ec build/test_convert.o
                0x00462bd8                test_try_str2suffix_number
 .text$test_try_str2type
                0x004630c4      0x208 build/test_convert.o
                0x004630c4                test_try_str2type
 .text$test_type_transformation
                0x004632cc       0x28 build/test_sw_list.o
                0x004632cc                test_type_transformation
 .text$test_uspec_behavior
                0x004632f4      0x118 build/test_sw_list.o
                0x004632f4                test_uspec_behavior
 .text$test_utoa_bin8
                0x0046340c        0x8 build/test_sw_list.o
                0x0046340c                test_utoa_bin8
 .text$test_visibility
                0x00463414      0x124 build/test_sw_list.o
                0x00463414                test_visibility
 .text$text_2_number_init
                0x00463538       0x90 build/convert.o
                0x00463538                text_2_number_init
 .text$time_calc_duration_ms
                0x004635c8       0x58 build/time_mcal.o
                0x004635c8                time_calc_duration_ms
 .text$time_data_parse
                0x00463620      0x22c build/time_mcal.o
                0x00463620                time_data_parse
 .text$time_date_cmp
                0x0046384c      0x14c build/time_mcal.o
                0x0046384c                time_date_cmp
 .text$time_date_set_default
                0x00463998       0x28 build/time_mcal.o
                0x00463998                time_date_set_default
 .text$time_delay_ms
                0x004639c0       0x6c build/time_mcal.o
                0x004639c0                time_delay_ms
 .text$time_diag
                0x00463a2c      0x324 build/time_diag.o
                0x00463a2c                time_diag
 .text$time_diag_command
                0x00463d50       0x1c build/time_commands.o
                0x00463d50                time_diag_command
 .text$time_duration_init
                0x00463d6c       0x6c build/time_mcal.o
                0x00463d6c                time_duration_init
 .text$time_duration_parse
                0x00463dd8      0x134 build/time_mcal.o
                0x00463dd8                time_duration_parse
 .text$time_duration_parse_digit
                0x00463f0c       0x6c build/time_mcal.o
 .text$time_duration_parse_digit_fractional
                0x00463f78       0xc4 build/time_mcal.o
 .text$time_duration_parse_integer_digit
                0x0046403c       0x5c build/time_mcal.o
 .text$time_duration_parse_one
                0x00464098      0x16c build/time_mcal.o
 .text$time_get_cnt
                0x00464204       0x48 build/time_config.o
                0x00464204                time_get_cnt
 .text$time_get_cur
                0x0046424c       0x68 build/time_mcal.o
                0x0046424c                time_get_cur
 .text$time_get_ms
                0x004642b4       0x70 build/time_mcal.o
                0x004642b4                time_get_ms
 .text$time_get_ms32
                0x00464324       0x40 build/time_mcal.o
                0x00464324                time_get_ms32
 .text$time_get_ms64
                0x00464364       0x64 build/time_mcal.o
                0x00464364                time_get_ms64
 .text$time_get_s
                0x004643c8       0x4c build/time_mcal.o
                0x004643c8                time_get_s
 .text$time_get_time
                0x00464414       0x18 build/time_mcal.o
                0x00464414                time_get_time
 .text$time_get_time_str
                0x0046442c       0x68 build/time_mcal.o
                0x0046442c                time_get_time_str
 .text$time_get_us
                0x00464494       0x24 build/time_mcal.o
                0x00464494                time_get_us
 .text$time_get_us32
                0x004644b8       0x1c build/time_mcal.o
                0x004644b8                time_get_us32
 .text$time_get_us32_one
                0x004644d4       0x30 build/time_mcal.o
                0x004644d4                time_get_us32_one
 .text$time_init_command
                0x00464504       0x38 build/time_commands.o
                0x00464504                time_init_command
 .text$time_init_custom
                0x0046453c       0x14 build/time_mcal.o
 .text$time_init_one
                0x00464550       0xa8 build/time_mcal.o
                0x00464550                time_init_one
 .text$time_mcal_init
                0x004645f8       0x84 build/time_mcal.o
                0x004645f8                time_mcal_init
 .text$time_one_get_us
                0x0046467c       0xdc build/time_mcal.o
                0x0046467c                time_one_get_us
 .text$time_parse
                0x00464758      0x29c build/time_mcal.o
                0x00464758                time_parse
 .text$time_proc
                0x004649f4       0x84 build/time_mcal.o
                0x004649f4                time_proc
 .text$time_proc_one
                0x00464a78       0x70 build/time_mcal.o
                0x00464a78                time_proc_one
 .text$time_sec_to_time
                0x00464ae8      0x164 build/time_mcal.o
                0x00464ae8                time_sec_to_time
 .text$time_synchronize_command
                0x00464c4c       0x14 build/time_commands.o
                0x00464c4c                time_synchronize_command
 .text$time_time_command
                0x00464c60       0x90 build/time_commands.o
                0x00464c60                time_time_command
 .text$time_uptime_2_time_date
                0x00464cf0       0x70 build/time_mcal.o
                0x00464cf0                time_uptime_2_time_date
 .text$time_wait_command
                0x00464d60       0xa4 build/time_commands.o
                0x00464d60                time_wait_command
 .text$time_wait_loop_command
                0x00464e04       0xd4 build/time_commands.o
                0x00464e04                time_wait_loop_command
 .text$time_wait_timeout
                0x00464ed8       0x38 build/time_mcal.o
                0x00464ed8                time_wait_timeout
 .text$timer_calc_artery
                0x00464f10      0x1b8 build/timer_calc.o
                0x00464f10                timer_calc_artery
 .text$timer_calc_artery_command
                0x004650c8      0x204 build/timer_calc_commands.o
                0x004650c8                timer_calc_artery_command
 .text$timer_calc_real_period_s
                0x004652cc       0x6c build/timer_calc.o
 .text$timer_calc_regs
                0x00465338      0x210 build/timer_calc.o
 .text$toggle_bool
                0x00465548       0x3c build/data_utils.o
                0x00465548                toggle_bool
 .text$toggle_val
                0x00465584       0x3c build/utils_math.o
                0x00465584                toggle_val
 .text$try_dec_char_to_u8
                0x004655c0       0x54 build/convert.o
 .text$try_hex_char_to_u8
                0x00465614       0x74 build/convert.o
                0x00465614                try_hex_char_to_u8
 .text$try_init
                0x00465688      0x128 build/common_functions.o
                0x00465688                try_init
 .text$try_str2array
                0x004657b0       0xe8 build/convert.o
                0x004657b0                try_str2array
 .text$try_str2bool
                0x00465898      0x11c build/convert.o
                0x00465898                try_str2bool
 .text$try_str2double
                0x004659b4       0x48 build/convert.o
                0x004659b4                try_str2double
 .text$try_str2float
                0x004659fc      0x128 build/convert.o
                0x004659fc                try_str2float
 .text$try_str2int16
                0x00465b24       0x34 build/convert.o
                0x00465b24                try_str2int16
 .text$try_str2int32
                0x00465b58       0x50 build/convert.o
                0x00465b58                try_str2int32
 .text$try_str2int64
                0x00465ba8       0x50 build/convert.o
                0x00465ba8                try_str2int64
 .text$try_str2int8
                0x00465bf8       0x34 build/convert.o
                0x00465bf8                try_str2int8
 .text$try_str2number
                0x00465c2c      0x1ac build/convert.o
                0x00465c2c                try_str2number
 .text$try_str2type
                0x00465dd8      0x298 build/convert.o
                0x00465dd8                try_str2type
 .text$try_str2uint16
                0x00466070       0x50 build/convert.o
                0x00466070                try_str2uint16
 .text$try_str2uint32
                0x004660c0       0x50 build/convert.o
                0x004660c0                try_str2uint32
 .text$try_str2uint32_hex
                0x00466110       0x50 build/convert.o
                0x00466110                try_str2uint32_hex
 .text$try_str2uint64
                0x00466160       0x50 build/convert.o
                0x00466160                try_str2uint64
 .text$try_str2uint8
                0x004661b0       0x50 build/convert.o
                0x004661b0                try_str2uint8
 .text$try_strl2array
                0x00466200      0x194 build/convert.o
                0x00466200                try_strl2array
 .text$try_strl2double
                0x00466394       0xd0 build/convert.o
                0x00466394                try_strl2double
 .text$try_strl2int16
                0x00466464       0x70 build/convert.o
                0x00466464                try_strl2int16
 .text$try_strl2int32
                0x004664d4      0x1b4 build/convert.o
                0x004664d4                try_strl2int32
 .text$try_strl2int32_dec
                0x00466688       0x94 build/convert.o
                0x00466688                try_strl2int32_dec
 .text$try_strl2int32_hex
                0x0046671c       0x94 build/convert.o
                0x0046671c                try_strl2int32_hex
 .text$try_strl2int64
                0x004667b0      0x134 build/convert.o
                0x004667b0                try_strl2int64
 .text$try_strl2int64_dec
                0x004668e4      0x1ac build/convert.o
                0x004668e4                try_strl2int64_dec
 .text$try_strl2int64_hex
                0x00466a90      0x150 build/convert.o
                0x00466a90                try_strl2int64_hex
 .text$try_strl2int8
                0x00466be0       0x68 build/convert.o
                0x00466be0                try_strl2int8
 .text$try_strl2int8_hex
                0x00466c48       0x90 build/convert.o
                0x00466c48                try_strl2int8_hex
 .text$try_strl2month
                0x00466cd8      0x1e0 build/convert.o
                0x00466cd8                try_strl2month
 .text$try_strl2uint16
                0x00466eb8       0x64 build/convert.o
                0x00466eb8                try_strl2uint16
 .text$try_strl2uint16_hex
                0x00466f1c       0x80 build/convert.o
                0x00466f1c                try_strl2uint16_hex
 .text$try_strl2uint32
                0x00466f9c      0x134 build/convert.o
                0x00466f9c                try_strl2uint32
 .text$try_strl2uint32_dec
                0x004670d0       0x74 build/convert.o
                0x004670d0                try_strl2uint32_dec
 .text$try_strl2uint32_hex
                0x00467144       0x74 build/convert.o
                0x00467144                try_strl2uint32_hex
 .text$try_strl2uint64
                0x004671b8      0x14c build/convert.o
                0x004671b8                try_strl2uint64
 .text$try_strl2uint64_dec
                0x00467304      0x154 build/convert.o
                0x00467304                try_strl2uint64_dec
 .text$try_strl2uint64_hex
                0x00467458      0x134 build/convert.o
                0x00467458                try_strl2uint64_hex
 .text$try_strl2uint8
                0x0046758c       0x6c build/convert.o
                0x0046758c                try_strl2uint8
 .text$try_strl2uint8_hex
                0x004675f8       0x88 build/convert.o
                0x004675f8                try_strl2uint8_hex
 .text$two_complement_to_decimal
                0x00467680       0xf4 build/utils_math.o
                0x00467680                two_complement_to_decimal
 .text$u32valToStr
                0x00467774       0x24 build/common_diag.o
                0x00467774                u32valToStr
 .text$ui2a     0x00467798       0xdc build/oprintf.o
 .text$uint16_to_uint8_limiter
                0x00467874       0x2c build/data_utils.o
                0x00467874                uint16_to_uint8_limiter
 .text$uint2str
                0x004678a0       0x30 build/common_diag.o
                0x004678a0                uint2str
 .text$uint32ToStr
                0x004678d0      0x194 build/num_to_str.o
                0x004678d0                uint32ToStr
 .text$uint32_limiter
                0x00467a64       0x30 build/data_utils.o
                0x00467a64                uint32_limiter
 .text$uint8_limiter
                0x00467a94       0x38 build/data_utils.o
                0x00467a94                uint8_limiter
 .text$uli2a    0x00467acc      0x1e4 build/oprintf.o
 .text$uniq_array
                0x00467cb0       0x78 build/array.o
                0x00467cb0                uniq_array
 .text$unit_test_cnt
                0x00467d28       0x1c build/test_config.o
                0x00467d28                unit_test_cnt
 .text$unit_test_find_key
                0x00467d44      0x244 build/unit_test_diag.o
                0x00467d44                unit_test_find_key
 .text$unit_test_init
                0x00467f88       0x74 build/unit_test.o
                0x00467f88                unit_test_init
 .text$unit_test_is_uniq
                0x00467ffc       0x9c build/unit_test.o
                0x00467ffc                unit_test_is_uniq
 .text$unit_test_list_is_uniq
                0x00468098       0xd8 build/unit_test.o
 .text$unit_test_proc
                0x00468170       0x28 build/unit_test.o
                0x00468170                unit_test_proc
 .text$unit_test_report
                0x00468198      0x108 build/unit_test_diag.o
                0x00468198                unit_test_report
 .text$unit_test_run
                0x004682a0       0x38 build/unit_test.o
                0x004682a0                unit_test_run
 .text$unit_test_run_excluding_key
                0x004682d8      0x108 build/unit_test.o
 .text$unit_test_run_first_fail
                0x004683e0      0x130 build/unit_test.o
                0x004683e0                unit_test_run_first_fail
 .text$unit_test_run_key
                0x00468510      0x10c build/unit_test.o
                0x00468510                unit_test_run_key
 .text$unit_test_run_legend
                0x0046861c       0xa4 build/unit_test_commands.o
 .text$unit_test_run_ll
                0x004686c0       0xd4 build/unit_test.o
                0x004686c0                unit_test_run_ll
 .text$unit_test_run_name
                0x00468794       0xdc build/unit_test.o
 .text$unit_test_run_prefix
                0x00468870       0xe4 build/unit_test.o
 .text$unit_test_run_range
                0x00468954       0xfc build/unit_test.o
 .text$unit_tests_run
                0x00468a50      0x4b4 build/unit_test.o
                0x00468a50                unit_tests_run
 .text$units_to_physical_quantity
                0x00468f04       0x40 build/sensitivity.o
                0x00468f04                units_to_physical_quantity
 .text$unsigned_big_endian_to_u64
                0x00468f44      0x11c build/qword_utils.o
                0x00468f44                unsigned_big_endian_to_u64
 .text$usec_to_sec
                0x00469060       0x48 build/time_mcal.o
                0x00469060                usec_to_sec
 .text$utoa32_  0x004690a8      0x108 build/num_to_str.o
                0x004690a8                utoa32_
 .text$utoa64_  0x004691b0      0x1b8 build/num_to_str.o
                0x004691b0                utoa64_
 .text$utoa_bin
                0x00469368       0xe8 build/num_to_str.o
                0x00469368                utoa_bin
 .text$utoa_bin16
                0x00469450       0xc0 build/num_to_str.o
                0x00469450                utoa_bin16
 .text$utoa_bin16_plain
                0x00469510       0x88 build/num_to_str.o
                0x00469510                utoa_bin16_plain
 .text$utoa_bin24
                0x00469598       0xe8 build/num_to_str.o
                0x00469598                utoa_bin24
 .text$utoa_bin24_plain
                0x00469680       0x7c build/num_to_str.o
                0x00469680                utoa_bin24_plain
 .text$utoa_bin32
                0x004696fc      0x10c build/num_to_str.o
                0x004696fc                utoa_bin32
 .text$utoa_bin64
                0x00469808       0x38 build/num_to_str.o
                0x00469808                utoa_bin64
 .text$utoa_bin8
                0x00469840       0xbc build/num_to_str.o
                0x00469840                utoa_bin8
 .text$utoa_bin8_plain
                0x004698fc       0x84 build/num_to_str.o
                0x004698fc                utoa_bin8_plain
 .text$utoa_hex32
                0x00469980       0x48 build/num_to_str.o
                0x00469980                utoa_hex32
 .text$utoa_hex64
                0x004699c8       0x60 build/num_to_str.o
                0x004699c8                utoa_hex64
 .text$wait_for_printf
                0x00469a28       0x2c build/log_utils.o
                0x00469a28                wait_for_printf
 .text$wait_in_loop_ms
                0x00469a54       0x8c build/none_blocking_pause.o
                0x00469a54                wait_in_loop_ms
 .text$wait_ms  0x00469ae0       0xa8 build/none_blocking_pause.o
                0x00469ae0                wait_ms
 .text$wait_us  0x00469b88       0xb8 build/none_blocking_pause.o
                0x00469b88                wait_us
 .text$wildcmp  0x00469c40      0x140 build/str_utils.o
                0x00469c40                wildcmp
 .text$win_cmd_run
                0x00469d80       0x90 build/win_utils.o
                0x00469d80                win_cmd_run
 .text$win_color_enable
                0x00469e10       0x5c build/win_utils.o
                0x00469e10                win_color_enable
 .text$win_color_init
                0x00469e6c       0x2c build/win_utils.o
                0x00469e6c                win_color_init
 .text$writer_clean
                0x00469e98       0x18 build/writer.o
                0x00469e98                writer_clean
 .text$writer_default
                0x00469eb0       0x2c build/writer.o
                0x00469eb0                writer_default
 .text$writer_error_callback
                0x00469edc       0x1c build/writer.o
                0x00469edc                writer_error_callback
 .text$writer_get
                0x00469ef8       0x14 build/writer.o
                0x00469ef8                writer_get
 .text$writer_get_cnt
                0x00469f0c       0x48 build/writer_config.o
                0x00469f0c                writer_get_cnt
 .text$writer_half_clean
                0x00469f54       0x40 build/writer.o
                0x00469f54                writer_half_clean
 .text$writer_init_common
                0x00469f94       0xbc build/writer.o
 .text$writer_init_custom
                0x0046a050       0x2c build/writer.o
 .text$writer_init_one
                0x0046a07c       0xc0 build/writer.o
 .text$writer_interface_get
                0x0046a13c       0x2c build/writer.o
                0x0046a13c                writer_interface_get
 .text$writer_interface_set
                0x0046a168       0x34 build/writer.o
                0x0046a168                writer_interface_set
 .text$writer_mcal_init
                0x0046a19c       0x80 build/writer.o
                0x0046a19c                writer_mcal_init
 .text$writer_proc
                0x0046a21c       0x80 build/writer.o
                0x0046a21c                writer_proc
 .text$writer_proc_one
                0x0046a29c       0x38 build/writer.o
 .text$writer_set_default
                0x0046a2d4       0x14 build/writer.o
                0x0046a2d4                writer_set_default
 *(.text.*)
 *fill*         0x0046a2e8        0x8 
 .text.startup  0x0046a2f0       0x10 c:/mingw/bin/../lib/gcc/mingw32/6.3.0/crtend.o
 *(.gnu.linkonce.t.*)
 *(.glue_7t)
 *(.glue_7)
                0x0046a300                ___CTOR_LIST__ = .
                0x0046a300                __CTOR_LIST__ = .
                0x0046a300        0x4 LONG 0xffffffff
 *(.ctors)
 *(.ctor)
 *(SORT(.ctors.*))
 .ctors.65535   0x0046a304        0x4 c:/mingw/bin/../lib/gcc/mingw32/6.3.0/crtend.o
                0x0046a308        0x4 LONG 0x0
                0x0046a30c                ___DTOR_LIST__ = .
                0x0046a30c                __DTOR_LIST__ = .
                0x0046a30c        0x4 LONG 0xffffffff
 *(.dtors)
 *(.dtor)
 *(SORT(.dtors.*))
                0x0046a310        0x4 LONG 0x0
 *(.fini)
 *(.gcc_exc)
                [!provide]                PROVIDE (etext, .)
                [!provide]                PROVIDE (_etext, .)
 *(.gcc_except_table)

.data           0x0046b000     0xb000
                0x0046b000                __data_start__ = .
 *(.data)
 .data          0x0046b000        0x0 c:/mingw/bin/../lib/gcc/mingw32/6.3.0/../../../crt2.o
 .data          0x0046b000        0x4 c:/mingw/bin/../lib/gcc/mingw32/6.3.0/crtbegin.o
 .data          0x0046b004        0x0 build/microcontroller_drv.o
 .data          0x0046b004        0x0 build/microcontroller_diag.o
 .data          0x0046b004        0x0 build/microcontroller_commands.o
 .data          0x0046b004        0x0 build/cpu_x86.o
 .data          0x0046b004        0x0 build/scheduler_config.o
 .data          0x0046b004        0x0 build/clock_config.o
 .data          0x0046b004        0x0 build/super_cycle_config.o
 .data          0x0046b004        0x0 build/storage_config.o
 .data          0x0046b004        0x0 build/writer_config.o
 .data          0x0046b004        0x0 build/akip1160_mcal.o
 .data          0x0046b004        0x0 build/akip1160_commands.o
 .data          0x0046b004        0x0 build/applications_commands.o
 .data          0x0046b004        0x0 build/mcal_diag.o
 .data          0x0046b004        0x0 build/clock_general.o
 .data          0x0046b004        0x0 build/clock_diag.o
 .data          0x0046b004        0x0 build/clock_commands.o
 .data          0x0046b004        0x0 build/hal_diag.o
 .data          0x0046b004        0x0 build/clock_mcal.o
 .data          0x0046b004        0x0 build/clock_custom_diag.o
 .data          0x0046b004        0x0 build/clock_custom_commands.o
 .data          0x0046b004        0x0 build/array.o
 .data          0x0046b004        0x0 build/array_diag.o
 .data          0x0046b004        0x0 build/array_commands.o
 .data          0x0046b004        0x0 build/fifo_index.o
 .data          0x0046b004        0x0 build/fifo_array.o
 .data          0x0046b004        0x0 build/fifo_char.o
 .data          0x0046b004        0x0 build/convert.o
 .data          0x0046b004        0x0 build/num_to_str.o
 .data          0x0046b004        0x0 build/convert_diag.o
 .data          0x0046b004        0x0 build/str_utils.o
 .data          0x0046b004        0x0 build/str_utils_ex.o
 .data          0x0046b004        0x0 build/log.o
 .data          0x0046b004        0x0 build/table_utils.o
 .data          0x0046b004        0x0 build/writer.o
 .data          0x0046b004        0x0 build/writer_stdout.o
 .data          0x0046b004        0x0 build/log_utils.o
 .data          0x0046b004        0x0 build/oprintf.o
 .data          0x0046b004        0x0 build/print_format.o
 .data          0x0046b004        0x0 build/log_commands.o
 .data          0x0046b004        0x0 build/interface_drv.o
 .data          0x0046b004        0x0 build/if_config.o
 .data          0x0046b004        0x0 build/serial_port.o
 .data          0x0046b004        0x0 build/serial_port_diag.o
 .data          0x0046b004        0x0 build/serial_port_commands.o
 .data          0x0046b004        0x0 build/protocol.o
 .data          0x0046b004        0x0 build/protocol_diag.o
 .data          0x0046b004        0x0 build/cli_drv.o
 .data          0x0046b004        0x0 build/cli_general_config.o
 .data          0x0046b004        0x0 build/cli_diag.o
 .data          0x0046b004        0x0 build/cli_native_commands.o
 .data          0x0046b004        0x0 build/csv.o
 .data          0x0046b004        0x0 build/string_reader.o
 .data          0x0046b004        0x0 build/string_reader_commands.o
 .data          0x0046b004        0x0 build/connectivity.o
 .data          0x0046b004        0x0 build/connectivity_commands.o
 .data          0x0046b004        0x0 build/connectivity_diag.o
 .data          0x0046b004        0x0 build/control_commands.o
 .data          0x0046b004        0x0 build/control_diag.o
 .data          0x0046b004        0x0 build/debugger.o
 .data          0x0046b004        0x0 build/debugger_commands.o
 .data          0x0046b004        0x0 build/super_cycle.o
 .data          0x0046b004        0x0 build/super_cycle_diag.o
 .data          0x0046b004        0x0 build/super_cycle_commands.o
 .data          0x0046b004        0x0 build/system.o
 .data          0x0046b004        0x0 build/scheduler_mcal.o
 .data          0x0046b004        0x0 build/scheduler_diag.o
 .data          0x0046b004        0x0 build/scheduler_commands.o
 .data          0x0046b004        0x0 build/win_utils.o
 .data          0x0046b004        0x0 build/pc_commands.o
 .data          0x0046b004        0x0 build/rational_num.o
 .data          0x0046b004        0x0 build/rational_num_diag.o
 .data          0x0046b004        0x0 build/limiter.o
 .data          0x0046b004        0x0 build/utils_math.o
 .data          0x0046b004        0x0 build/math_diag.o
 .data          0x0046b004        0x0 build/math_commands.o
 .data          0x0046b004        0x0 build/timer_calc.o
 .data          0x0046b004        0x0 build/timer_calc_diag.o
 .data          0x0046b004        0x0 build/timer_calc_commands.o
 .data          0x0046b004        0x0 build/computing.o
 .data          0x0046b004        0x0 build/computing_commands.o
 .data          0x0046b004        0x0 build/health_monitor.o
 .data          0x0046b004        0x0 build/health_monitor_commands.o
 .data          0x0046b004        0x0 build/time_mcal.o
 .data          0x0046b004        0x0 build/none_blocking_pause.o
 .data          0x0046b004        0x0 build/time_commands.o
 .data          0x0046b004        0x0 build/sensitivity.o
 .data          0x0046b004        0x0 build/sensitivity_diag.o
 .data          0x0046b004        0x0 build/sensitivity_commands.o
 .data          0x0046b004        0x0 build/file_api.o
 .data          0x0046b004        0x0 build/storage.o
 .data          0x0046b004        0x0 build/storage_commands.o
 .data          0x0046b004        0x0 build/shared_array.o
 .data          0x0046b004        0x0 build/common_functions.o
 .data          0x0046b004        0x0 build/common_commands.o
 .data          0x0046b004        0x0 build/bit_utils.o
 .data          0x0046b004        0x0 build/bit_diag.o
 .data          0x0046b004        0x0 build/bit_commands.o
 .data          0x0046b004        0x0 build/byte_utils.o
 .data          0x0046b004        0x0 build/word_utils.o
 .data          0x0046b004        0x0 build/dword_utils.o
 .data          0x0046b004        0x0 build/qword_utils.o
 .data          0x0046b004        0x0 build/byte_diag.o
 .data          0x0046b004        0x0 build/data_utils.o
 .data          0x0046b004        0x0 build/helper.o
 .data          0x0046b004        0x0 build/float_utils.o
 .data          0x0046b004        0x0 build/float_diag.o
 .data          0x0046b004        0x0 build/debug_info.o
 .data          0x0046b004        0x0 build/print_buffer.o
 .data          0x0046b004        0x0 build/test_config.o
 .data          0x0046b004        0x0 build/unit_test.o
 .data          0x0046b004        0x0 build/unit_test_commands.o
 .data          0x0046b004        0x0 build/test_array.o
 .data          0x0046b004        0x0 build/test_time_utils.o
 .data          0x0046b004        0x0 build/float_test.o
 .data          0x0046b004        0x0 build/test_math.o
 .data          0x0046b004        0x0 build/test_csv.o
 .data          0x0046b004        0x0 build/test_protocol.o
 .data          0x0046b004        0x0 build/test_fifo_array.o
 .data          0x0046b004        0x0 build/test_fifo_char.o
 .data          0x0046b004        0x0 build/test_fifo_indexer.o
 .data          0x0046b004        0x0 build/test_convert.o
 .data          0x0046b004        0x0 build/test_string_utils.o
 .data          0x0046b004        0x0 build/test_libc.o
 .data          0x0046b004        0x0 build/test_sw_list.o
 .data          0x0046b004        0x0 build/main.o
 .data          0x0046b004        0x0 build/akip1160_diag.o
 .data          0x0046b004        0x0 build/log_diag.o
 .data          0x0046b004        0x0 build/interfaces_diag.o
 .data          0x0046b004        0x0 build/csv_diag.o
 .data          0x0046b004        0x0 build/system_diag.o
 .data          0x0046b004        0x0 build/time_diag.o
 .data          0x0046b004        0x0 build/storage_diag.o
 .data          0x0046b004        0x0 build/common_diag.o
 .data          0x0046b004        0x0 build/unit_test_diag.o
 .data          0x0046b004        0x0 build/board_config.o
 .data          0x0046b004        0x0 build/board_monitor.o
 .data          0x0046b004        0x0 build/cli_config.o
 .data          0x0046b004        0x0 build/mem_config.o
 .data          0x0046b004        0x0 build/log_config.o
 .data          0x0046b004        0x0 build/string_reader_config.o
 .data          0x0046b004        0x0 build/serial_port_config.o
 .data          0x0046b004        0x0 build/time_config.o
 .data          0x0046b004        0x0 build/akip1160_config.o
 .data          0x0046b004        0x0 build/third_party_main.o
 .data          0x0046b004        0x4 c:/mingw/bin/../lib/gcc/mingw32/6.3.0/../../..\libmingw32.a(CRTglob.o)
                0x0046b004                _CRT_glob
 .data          0x0046b008        0x0 c:/mingw/bin/../lib/gcc/mingw32/6.3.0/../../..\libmingw32.a(setargv.o)
 .data          0x0046b008        0x0 c:/mingw/bin/../lib/gcc/mingw32/6.3.0/../../..\libmingw32.a(CRTfmode.o)
 .data          0x0046b008        0x0 c:/mingw/bin/../lib/gcc/mingw32/6.3.0/../../..\libmingw32.a(cpu_features.o)
 .data          0x0046b008        0x4 c:/mingw/bin/../lib/gcc/mingw32/6.3.0/../../..\libmingw32.a(CRT_fp10.o)
                0x0046b008                _CRT_fenv
 .data          0x0046b00c        0x4 c:/mingw/bin/../lib/gcc/mingw32/6.3.0/../../..\libmingw32.a(txtmode.o)
                0x0046b00c                _fmode
 .data          0x0046b010        0x4 c:/mingw/bin/../lib/gcc/mingw32/6.3.0/../../..\libmingw32.a(gccmain.o)
 .data          0x0046b014        0x0 c:/mingw/bin/../lib/gcc/mingw32/6.3.0/../../..\libmingw32.a(tlssup.o)
 .data          0x0046b014        0x0 c:/mingw/bin/../lib/gcc/mingw32/6.3.0/../../..\libmingw32.a(tlsthrd.o)
 .data          0x0046b014        0x0 c:/mingw/bin/../lib/gcc/mingw32/6.3.0/../../..\libmingw32.a(pseudo-reloc.o)
 .data          0x0046b014        0x0 c:/mingw/bin/../lib/gcc/mingw32/6.3.0/../../..\libmingw32.a(pseudo-reloc-list.o)
 .data          0x0046b014        0x0 c:/mingw/bin/../lib/gcc/mingw32/6.3.0/../../..\libmingw32.a(crtst.o)
 .data          0x0046b014        0x0 c:/mingw/bin/../lib/gcc/mingw32/6.3.0\libgcc.a(_chkstk_ms.o)
 .data          0x0046b014        0x0 c:/mingw/bin/../lib/gcc/mingw32/6.3.0\libgcc.a(_ctors.o)
 .data          0x0046b014        0x0 c:/mingw/bin/../lib/gcc/mingw32/6.3.0\libgcc.a(_divdi3.o)
 .data          0x0046b014        0x0 c:/mingw/bin/../lib/gcc/mingw32/6.3.0\libgcc.a(_udivdi3.o)
 .data          0x0046b014        0x0 c:/mingw/bin/../lib/gcc/mingw32/6.3.0\libgcc.a(_umoddi3.o)
 .data          0x0046b014        0x0 c:/mingw/bin/../lib/gcc/mingw32/6.3.0/../../..\libmoldname.a(dagwbs00047.o)
 .data          0x0046b014        0x0 c:/mingw/bin/../lib/gcc/mingw32/6.3.0/../../..\libmoldname.a(dagwbh.o)
 .data          0x0046b014        0x0 c:/mingw/bin/../lib/gcc/mingw32/6.3.0/../../..\libmoldname.a(dagwbt.o)
 .data          0x0046b014        0x4 c:/mingw/bin/../lib/gcc/mingw32/6.3.0/../../..\libmingwex.a(fesetenv.o)
 .data          0x0046b018        0x0 c:/mingw/bin/../lib/gcc/mingw32/6.3.0/../../..\libmingwex.a(cosf.o)
 .data          0x0046b018        0x0 c:/mingw/bin/../lib/gcc/mingw32/6.3.0/../../..\libmingwex.a(sinf.o)
 .data          0x0046b018        0x0 c:/mingw/bin/../lib/gcc/mingw32/6.3.0/../../..\libmingwex.a(ceilf.o)
 .data          0x0046b018        0x0 c:/mingw/bin/../lib/gcc/mingw32/6.3.0/../../..\libmingwex.a(fmax.o)
 .data          0x0046b018        0x0 c:/mingw/bin/../lib/gcc/mingw32/6.3.0/../../..\libmingwex.a(fmaxf.o)
 .data          0x0046b018        0x0 c:/mingw/bin/../lib/gcc/mingw32/6.3.0/../../..\libmingwex.a(fmodf.o)
 .data          0x0046b018        0x0 c:/mingw/bin/../lib/gcc/mingw32/6.3.0/../../..\libmingwex.a(fpclassifyf.o)
 .data          0x0046b018        0x0 c:/mingw/bin/../lib/gcc/mingw32/6.3.0/../../..\libmingwex.a(log10f.o)
 .data          0x0046b018        0x0 c:/mingw/bin/../lib/gcc/mingw32/6.3.0/../../..\libmingwex.a(logf.o)
 .data          0x0046b018        0x0 c:/mingw/bin/../lib/gcc/mingw32/6.3.0/../../..\libmingwex.a(powf.o)
 .data          0x0046b018        0x0 c:/mingw/bin/../lib/gcc/mingw32/6.3.0/../../..\libmingwex.a(rintf.o)
 .data          0x0046b018        0x0 c:/mingw/bin/../lib/gcc/mingw32/6.3.0/../../..\libmingwex.a(x87cvtf.o)
 .data          0x0046b018        0x0 c:/mingw/bin/../lib/gcc/mingw32/6.3.0/../../..\libmingwex.a(x87log.o)
 .data          0x0046b018        0x0 c:/mingw/bin/../lib/gcc/mingw32/6.3.0/../../..\libmingwex.a(x87pow.o)
 .data          0x0046b018        0x0 c:/mingw/bin/../lib/gcc/mingw32/6.3.0/../../..\libmingwex.a(snprintf.o)
 .data          0x0046b018        0x0 c:/mingw/bin/../lib/gcc/mingw32/6.3.0/../../..\libmingwex.a(vfprintf.o)
 .data          0x0046b018        0x0 c:/mingw/bin/../lib/gcc/mingw32/6.3.0/../../..\libmingwex.a(vprintf.o)
 .data          0x0046b018        0x0 c:/mingw/bin/../lib/gcc/mingw32/6.3.0/../../..\libmingwex.a(vsnprintf.o)
 .data          0x0046b018        0x0 c:/mingw/bin/../lib/gcc/mingw32/6.3.0/../../..\libmingwex.a(vsprintf.o)
 .data          0x0046b018        0x0 c:/mingw/bin/../lib/gcc/mingw32/6.3.0/../../..\libmingwex.a(glob.o)
 .data          0x0046b018        0x0 c:/mingw/bin/../lib/gcc/mingw32/6.3.0/../../..\libmingwex.a(dirname.o)
 .data          0x0046b018        0x0 c:/mingw/bin/../lib/gcc/mingw32/6.3.0/../../..\libmingwex.a(dirent.o)
 .data          0x0046b018        0x0 c:/mingw/bin/../lib/gcc/mingw32/6.3.0/../../..\libmingwex.a(strcasecmp.jmpstub.o)
 .data          0x0046b018       0x14 c:/mingw/bin/../lib/gcc/mingw32/6.3.0/../../..\libmingwex.a(pformat.o)
 .data          0x0046b02c        0x0 c:/mingw/bin/../lib/gcc/mingw32/6.3.0/../../..\libmingwex.a(varofmt.o)
 .data          0x0046b02c        0x0 c:/mingw/bin/../lib/gcc/mingw32/6.3.0/../../..\libmingwex.a(mbrtowc.o)
 .data          0x0046b02c        0x0 c:/mingw/bin/../lib/gcc/mingw32/6.3.0/../../..\libmingwex.a(wcrtomb.o)
 .data          0x0046b02c        0x0 c:/mingw/bin/../lib/gcc/mingw32/6.3.0/../../..\libmingwex.a(gdtoa.o)
 .data          0x0046b02c        0x0 c:/mingw/bin/../lib/gcc/mingw32/6.3.0/../../..\libmingwex.a(gmisc.o)
 .data          0x0046b02c        0x0 c:/mingw/bin/../lib/gcc/mingw32/6.3.0/../../..\libmingwex.a(dmisc.o)
 .data          0x0046b02c        0x4 c:/mingw/bin/../lib/gcc/mingw32/6.3.0/../../..\libmingwex.a(misc.o)
 .data          0x0046b030        0x0 c:/mingw/bin/../lib/gcc/mingw32/6.3.0/../../..\libmsvcrt.a(djpvbs01325.o)
 .data          0x0046b030        0x0 c:/mingw/bin/../lib/gcc/mingw32/6.3.0/../../..\libmsvcrt.a(djpvbs01308.o)
 .data          0x0046b030        0x0 c:/mingw/bin/../lib/gcc/mingw32/6.3.0/../../..\libmsvcrt.a(djpvbs01284.o)
 .data          0x0046b030        0x0 c:/mingw/bin/../lib/gcc/mingw32/6.3.0/../../..\libmsvcrt.a(djpvbs01278.o)
 .data          0x0046b030        0x0 c:/mingw/bin/../lib/gcc/mingw32/6.3.0/../../..\libmsvcrt.a(djpvbs01277.o)
 .data          0x0046b030        0x0 c:/mingw/bin/../lib/gcc/mingw32/6.3.0/../../..\libmsvcrt.a(djpvbs01272.o)
 .data          0x0046b030        0x0 c:/mingw/bin/../lib/gcc/mingw32/6.3.0/../../..\libmsvcrt.a(djpvbs01269.o)
 .data          0x0046b030        0x0 c:/mingw/bin/../lib/gcc/mingw32/6.3.0/../../..\libmsvcrt.a(djpvbs01258.o)
 .data          0x0046b030        0x0 c:/mingw/bin/../lib/gcc/mingw32/6.3.0/../../..\libmsvcrt.a(djpvbs01257.o)
 .data          0x0046b030        0x0 c:/mingw/bin/../lib/gcc/mingw32/6.3.0/../../..\libmsvcrt.a(djpvbs01253.o)
 .data          0x0046b030        0x0 c:/mingw/bin/../lib/gcc/mingw32/6.3.0/../../..\libmsvcrt.a(djpvbs01252.o)
 .data          0x0046b030        0x0 c:/mingw/bin/../lib/gcc/mingw32/6.3.0/../../..\libmsvcrt.a(djpvbs01249.o)
 .data          0x0046b030        0x0 c:/mingw/bin/../lib/gcc/mingw32/6.3.0/../../..\libmsvcrt.a(djpvbs01245.o)
 .data          0x0046b030        0x0 c:/mingw/bin/../lib/gcc/mingw32/6.3.0/../../..\libmsvcrt.a(djpvbs01243.o)
 .data          0x0046b030        0x0 c:/mingw/bin/../lib/gcc/mingw32/6.3.0/../../..\libmsvcrt.a(djpvbs01242.o)
 .data          0x0046b030        0x0 c:/mingw/bin/../lib/gcc/mingw32/6.3.0/../../..\libmsvcrt.a(djpvbs01241.o)
 .data          0x0046b030        0x0 c:/mingw/bin/../lib/gcc/mingw32/6.3.0/../../..\libmsvcrt.a(djpvbs01240.o)
 .data          0x0046b030        0x0 c:/mingw/bin/../lib/gcc/mingw32/6.3.0/../../..\libmsvcrt.a(djpvbs01236.o)
 .data          0x0046b030        0x0 c:/mingw/bin/../lib/gcc/mingw32/6.3.0/../../..\libmsvcrt.a(djpvbs01235.o)
 .data          0x0046b030        0x0 c:/mingw/bin/../lib/gcc/mingw32/6.3.0/../../..\libmsvcrt.a(djpvbs01230.o)
 .data          0x0046b030        0x0 c:/mingw/bin/../lib/gcc/mingw32/6.3.0/../../..\libmsvcrt.a(djpvbs01229.o)
 .data          0x0046b030        0x0 c:/mingw/bin/../lib/gcc/mingw32/6.3.0/../../..\libmsvcrt.a(djpvbs01227.o)
 .data          0x0046b030        0x0 c:/mingw/bin/../lib/gcc/mingw32/6.3.0/../../..\libmsvcrt.a(djpvbs01220.o)
 .data          0x0046b030        0x0 c:/mingw/bin/../lib/gcc/mingw32/6.3.0/../../..\libmsvcrt.a(djpvbs01218.o)
 .data          0x0046b030        0x0 c:/mingw/bin/../lib/gcc/mingw32/6.3.0/../../..\libmsvcrt.a(djpvbs01215.o)
 .data          0x0046b030        0x0 c:/mingw/bin/../lib/gcc/mingw32/6.3.0/../../..\libmsvcrt.a(djpvbs01212.o)
 .data          0x0046b030        0x0 c:/mingw/bin/../lib/gcc/mingw32/6.3.0/../../..\libmsvcrt.a(djpvbs01211.o)
 .data          0x0046b030        0x0 c:/mingw/bin/../lib/gcc/mingw32/6.3.0/../../..\libmsvcrt.a(djpvbs01207.o)
 .data          0x0046b030        0x0 c:/mingw/bin/../lib/gcc/mingw32/6.3.0/../../..\libmsvcrt.a(djpvbs01204.o)
 .data          0x0046b030        0x0 c:/mingw/bin/../lib/gcc/mingw32/6.3.0/../../..\libmsvcrt.a(djpvbs01203.o)
 .data          0x0046b030        0x0 c:/mingw/bin/../lib/gcc/mingw32/6.3.0/../../..\libmsvcrt.a(djpvbs01201.o)
 .data          0x0046b030        0x0 c:/mingw/bin/../lib/gcc/mingw32/6.3.0/../../..\libmsvcrt.a(djpvbs01199.o)
 .data          0x0046b030        0x0 c:/mingw/bin/../lib/gcc/mingw32/6.3.0/../../..\libmsvcrt.a(djpvbs01194.o)
 .data          0x0046b030        0x0 c:/mingw/bin/../lib/gcc/mingw32/6.3.0/../../..\libmsvcrt.a(djpvbs01187.o)
 .data          0x0046b030        0x0 c:/mingw/bin/../lib/gcc/mingw32/6.3.0/../../..\libmsvcrt.a(djpvbs01185.o)
 .data          0x0046b030        0x0 c:/mingw/bin/../lib/gcc/mingw32/6.3.0/../../..\libmsvcrt.a(djpvbs01184.o)
 .data          0x0046b030        0x0 c:/mingw/bin/../lib/gcc/mingw32/6.3.0/../../..\libmsvcrt.a(djpvbs01183.o)
 .data          0x0046b030        0x0 c:/mingw/bin/../lib/gcc/mingw32/6.3.0/../../..\libmsvcrt.a(djpvbs01182.o)
 .data          0x0046b030        0x0 c:/mingw/bin/../lib/gcc/mingw32/6.3.0/../../..\libmsvcrt.a(djpvbs01163.o)
 .data          0x0046b030        0x0 c:/mingw/bin/../lib/gcc/mingw32/6.3.0/../../..\libmsvcrt.a(djpvbs01161.o)
 .data          0x0046b030        0x0 c:/mingw/bin/../lib/gcc/mingw32/6.3.0/../../..\libmsvcrt.a(djpvbs01147.o)
 .data          0x0046b030        0x0 c:/mingw/bin/../lib/gcc/mingw32/6.3.0/../../..\libmsvcrt.a(djpvbs01142.o)
 .data          0x0046b030        0x0 c:/mingw/bin/../lib/gcc/mingw32/6.3.0/../../..\libmsvcrt.a(djpvbs01131.o)
 .data          0x0046b030        0x0 c:/mingw/bin/../lib/gcc/mingw32/6.3.0/../../..\libmsvcrt.a(djpvbs01126.o)
 .data          0x0046b030        0x0 c:/mingw/bin/../lib/gcc/mingw32/6.3.0/../../..\libmsvcrt.a(djpvbs01122.o)
 .data          0x0046b030        0x0 c:/mingw/bin/../lib/gcc/mingw32/6.3.0/../../..\libmsvcrt.a(djpvbs01111.o)
 .data          0x0046b030        0x0 c:/mingw/bin/../lib/gcc/mingw32/6.3.0/../../..\libmsvcrt.a(djpvbs01108.o)
 .data          0x0046b030        0x0 c:/mingw/bin/../lib/gcc/mingw32/6.3.0/../../..\libmsvcrt.a(djpvbs01106.o)
 .data          0x0046b030        0x0 c:/mingw/bin/../lib/gcc/mingw32/6.3.0/../../..\libmsvcrt.a(djpvbs01102.o)
 .data          0x0046b030        0x0 c:/mingw/bin/../lib/gcc/mingw32/6.3.0/../../..\libmsvcrt.a(djpvbs01099.o)
 .data          0x0046b030        0x0 c:/mingw/bin/../lib/gcc/mingw32/6.3.0/../../..\libmsvcrt.a(djpvbs01098.o)
 .data          0x0046b030        0x0 c:/mingw/bin/../lib/gcc/mingw32/6.3.0/../../..\libmsvcrt.a(djpvbs01093.o)
 .data          0x0046b030        0x0 c:/mingw/bin/../lib/gcc/mingw32/6.3.0/../../..\libmsvcrt.a(djpvbs01091.o)
 .data          0x0046b030        0x0 c:/mingw/bin/../lib/gcc/mingw32/6.3.0/../../..\libmsvcrt.a(djpvbs01083.o)
 .data          0x0046b030        0x0 c:/mingw/bin/../lib/gcc/mingw32/6.3.0/../../..\libmsvcrt.a(djpvbs00803.o)
 .data          0x0046b030        0x0 c:/mingw/bin/../lib/gcc/mingw32/6.3.0/../../..\libmsvcrt.a(djpvbs00753.o)
 .data          0x0046b030        0x0 c:/mingw/bin/../lib/gcc/mingw32/6.3.0/../../..\libmsvcrt.a(djpvbs00698.o)
 .data          0x0046b030        0x0 c:/mingw/bin/../lib/gcc/mingw32/6.3.0/../../..\libmsvcrt.a(djpvbs00689.o)
 .data          0x0046b030        0x0 c:/mingw/bin/../lib/gcc/mingw32/6.3.0/../../..\libmsvcrt.a(djpvbs00422.o)
 .data          0x0046b030        0x0 c:/mingw/bin/../lib/gcc/mingw32/6.3.0/../../..\libmsvcrt.a(djpvbs00417.o)
 .data          0x0046b030        0x0 c:/mingw/bin/../lib/gcc/mingw32/6.3.0/../../..\libmsvcrt.a(djpvbs00379.o)
 .data          0x0046b030        0x0 c:/mingw/bin/../lib/gcc/mingw32/6.3.0/../../..\libmsvcrt.a(djpvbs00350.o)
 .data          0x0046b030        0x0 c:/mingw/bin/../lib/gcc/mingw32/6.3.0/../../..\libmsvcrt.a(djpvbs00324.o)
 .data          0x0046b030        0x0 c:/mingw/bin/../lib/gcc/mingw32/6.3.0/../../..\libmsvcrt.a(djpvbs00285.o)
 .data          0x0046b030        0x0 c:/mingw/bin/../lib/gcc/mingw32/6.3.0/../../..\libmsvcrt.a(djpvbs00219.o)
 .data          0x0046b030        0x0 c:/mingw/bin/../lib/gcc/mingw32/6.3.0/../../..\libmsvcrt.a(djpvbs00153.o)
 .data          0x0046b030        0x0 c:/mingw/bin/../lib/gcc/mingw32/6.3.0/../../..\libmsvcrt.a(djpvbs00133.o)
 .data          0x0046b030        0x0 c:/mingw/bin/../lib/gcc/mingw32/6.3.0/../../..\libmsvcrt.a(djpvbs00131.o)
 .data          0x0046b030        0x0 c:/mingw/bin/../lib/gcc/mingw32/6.3.0/../../..\libmsvcrt.a(djpvbs00119.o)
 .data          0x0046b030        0x0 c:/mingw/bin/../lib/gcc/mingw32/6.3.0/../../..\libmsvcrt.a(djpvbs00088.o)
 .data          0x0046b030        0x0 c:/mingw/bin/../lib/gcc/mingw32/6.3.0/../../..\libmsvcrt.a(djpvbh.o)
 .data          0x0046b030        0x0 c:/mingw/bin/../lib/gcc/mingw32/6.3.0/../../..\libmsvcrt.a(djpvbt.o)
 .data          0x0046b030        0x0 c:/mingw/bin/../lib/gcc/mingw32/6.3.0/../../..\libkernel32.a(dujcs01267.o)
 .data          0x0046b030        0x0 c:/mingw/bin/../lib/gcc/mingw32/6.3.0/../../..\libkernel32.a(dujcs01247.o)
 .data          0x0046b030        0x0 c:/mingw/bin/../lib/gcc/mingw32/6.3.0/../../..\libkernel32.a(dujcs01215.o)
 .data          0x0046b030        0x0 c:/mingw/bin/../lib/gcc/mingw32/6.3.0/../../..\libkernel32.a(dujcs01213.o)
 .data          0x0046b030        0x0 c:/mingw/bin/../lib/gcc/mingw32/6.3.0/../../..\libkernel32.a(dujcs01173.o)
 .data          0x0046b030        0x0 c:/mingw/bin/../lib/gcc/mingw32/6.3.0/../../..\libkernel32.a(dujcs01152.o)
 .data          0x0046b030        0x0 c:/mingw/bin/../lib/gcc/mingw32/6.3.0/../../..\libkernel32.a(dujcs01140.o)
 .data          0x0046b030        0x0 c:/mingw/bin/../lib/gcc/mingw32/6.3.0/../../..\libkernel32.a(dujcs01037.o)
 .data          0x0046b030        0x0 c:/mingw/bin/../lib/gcc/mingw32/6.3.0/../../..\libkernel32.a(dujcs01014.o)
 .data          0x0046b030        0x0 c:/mingw/bin/../lib/gcc/mingw32/6.3.0/../../..\libkernel32.a(dujcs01013.o)
 .data          0x0046b030        0x0 c:/mingw/bin/../lib/gcc/mingw32/6.3.0/../../..\libkernel32.a(dujcs00947.o)
 .data          0x0046b030        0x0 c:/mingw/bin/../lib/gcc/mingw32/6.3.0/../../..\libkernel32.a(dujcs00860.o)
 .data          0x0046b030        0x0 c:/mingw/bin/../lib/gcc/mingw32/6.3.0/../../..\libkernel32.a(dujcs00817.o)
 .data          0x0046b030        0x0 c:/mingw/bin/../lib/gcc/mingw32/6.3.0/../../..\libkernel32.a(dujcs00814.o)
 .data          0x0046b030        0x0 c:/mingw/bin/../lib/gcc/mingw32/6.3.0/../../..\libkernel32.a(dujcs00763.o)
 .data          0x0046b030        0x0 c:/mingw/bin/../lib/gcc/mingw32/6.3.0/../../..\libkernel32.a(dujcs00744.o)
 .data          0x0046b030        0x0 c:/mingw/bin/../lib/gcc/mingw32/6.3.0/../../..\libkernel32.a(dujcs00734.o)
 .data          0x0046b030        0x0 c:/mingw/bin/../lib/gcc/mingw32/6.3.0/../../..\libkernel32.a(dujcs00608.o)
 .data          0x0046b030        0x0 c:/mingw/bin/../lib/gcc/mingw32/6.3.0/../../..\libkernel32.a(dujcs00577.o)
 .data          0x0046b030        0x0 c:/mingw/bin/../lib/gcc/mingw32/6.3.0/../../..\libkernel32.a(dujcs00529.o)
 .data          0x0046b030        0x0 c:/mingw/bin/../lib/gcc/mingw32/6.3.0/../../..\libkernel32.a(dujcs00510.o)
 .data          0x0046b030        0x0 c:/mingw/bin/../lib/gcc/mingw32/6.3.0/../../..\libkernel32.a(dujcs00426.o)
 .data          0x0046b030        0x0 c:/mingw/bin/../lib/gcc/mingw32/6.3.0/../../..\libkernel32.a(dujcs00388.o)
 .data          0x0046b030        0x0 c:/mingw/bin/../lib/gcc/mingw32/6.3.0/../../..\libkernel32.a(dujcs00386.o)
 .data          0x0046b030        0x0 c:/mingw/bin/../lib/gcc/mingw32/6.3.0/../../..\libkernel32.a(dujcs00352.o)
 .data          0x0046b030        0x0 c:/mingw/bin/../lib/gcc/mingw32/6.3.0/../../..\libkernel32.a(dujcs00321.o)
 .data          0x0046b030        0x0 c:/mingw/bin/../lib/gcc/mingw32/6.3.0/../../..\libkernel32.a(dujcs00304.o)
 .data          0x0046b030        0x0 c:/mingw/bin/../lib/gcc/mingw32/6.3.0/../../..\libkernel32.a(dujcs00300.o)
 .data          0x0046b030        0x0 c:/mingw/bin/../lib/gcc/mingw32/6.3.0/../../..\libkernel32.a(dujcs00279.o)
 .data          0x0046b030        0x0 c:/mingw/bin/../lib/gcc/mingw32/6.3.0/../../..\libkernel32.a(dujcs00236.o)
 .data          0x0046b030        0x0 c:/mingw/bin/../lib/gcc/mingw32/6.3.0/../../..\libkernel32.a(dujcs00207.o)
 .data          0x0046b030        0x0 c:/mingw/bin/../lib/gcc/mingw32/6.3.0/../../..\libkernel32.a(dujcs00135.o)
 .data          0x0046b030        0x0 c:/mingw/bin/../lib/gcc/mingw32/6.3.0/../../..\libkernel32.a(dujcs00082.o)
 .data          0x0046b030        0x0 c:/mingw/bin/../lib/gcc/mingw32/6.3.0/../../..\libkernel32.a(dujch.o)
 .data          0x0046b030        0x0 c:/mingw/bin/../lib/gcc/mingw32/6.3.0/../../..\libkernel32.a(dujct.o)
 .data          0x0046b030        0x0 c:/mingw/bin/../lib/gcc/mingw32/6.3.0/../../..\libmoldname.a(dagwbs00082.o)
 .data          0x0046b030        0x0 c:/mingw/bin/../lib/gcc/mingw32/6.3.0/../../..\libmoldname.a(dagwbs00080.o)
 .data          0x0046b030        0x0 c:/mingw/bin/../lib/gcc/mingw32/6.3.0/crtend.o
 *(.data2)
 *(SORT(.data$*))
 *fill*         0x0046b030       0x10 
 .data$Akip1160Instance
                0x0046b040       0x80 build/akip1160_config.o
                0x0046b040                Akip1160Instance
 .data$CliInstance
                0x0046b0c0       0x80 build/cli_config.o
                0x0046b0c0                CliInstance
 .data$ClockConfig
                0x0046b140       0x18 build/clock_config.o
                0x0046b140                ClockConfig
 *fill*         0x0046b158        0x8 
 .data$ClockInstance
                0x0046b160       0x40 build/clock_config.o
                0x0046b160                ClockInstance
 .data$FifoData
                0x0046b1a0      0x200 build/string_reader_config.o
 .data$HealthMon
                0x0046b3a0       0x40 build/health_monitor.o
                0x0046b3a0                HealthMon
 .data$LineData
                0x0046b3e0      0x200 build/string_reader_config.o
 .data$Log      0x0046b5e0       0x40 build/log.o
                0x0046b5e0                Log
 .data$LogInstance
                0x0046b620        0xc build/log_config.o
                0x0046b620                LogInstance
 .data$SchedulerInstance
                0x0046b62c       0x10 build/scheduler_config.o
                0x0046b62c                SchedulerInstance
 *fill*         0x0046b63c        0x4 
 .data$SchedulerTaskSet1
                0x0046b640      0x180 build/scheduler_config.o
                0x0046b640                SchedulerTaskSet1
 .data$SerialPortInstance
                0x0046b7c0       0x40 build/serial_port_config.o
                0x0046b7c0                SerialPortInstance
 .data$StringReaderInstance
                0x0046b800       0xe0 build/string_reader_config.o
                0x0046b800                StringReaderInstance
 .data$SuperCycleInstance
                0x0046b8e0       0x60 build/super_cycle_config.o
                0x0046b8e0                SuperCycleInstance
 .data$System   0x0046b940      0x660 build/system.o
                0x0046b940                System
 .data$Temp.3584
                0x0046bfa0       0x20 build/interfaces_diag.o
 .data$TimeInstance
                0x0046bfc0       0x10 build/time_config.o
                0x0046bfc0                TimeInstance
 .data$UnitTest
                0x0046bfd0       0x10 build/test_config.o
                0x0046bfd0                UnitTest
 .data$WriterArray
                0x0046bfe0      0xfa0 build/writer_config.o
 .data$WriterInstance
                0x0046cf80      0x340 build/writer_config.o
                0x0046cf80                WriterInstance
 .data$buffer.4441
                0x0046d2c0       0x40 build/num_to_str.o
 .data$c        0x0046d300       0x10 build/test_sw_list.o
                0x0046d300                c
 .data$called.4602
                0x0046d310        0x4 build/unit_test.o
 .data$cli_argc.4993
                0x0046d314        0x4 build/cli_drv.o
 .data$cp       0x0046d318       0x10 build/test_sw_list.o
                0x0046d318                cp
 .data$cpp      0x0046d328        0x4 build/test_sw_list.o
                0x0046d328                cpp
 .data$curWriterPtr
                0x0046d32c        0x4 build/writer_config.o
                0x0046d32c                curWriterPtr
 *fill*         0x0046d330       0x10 
 .data$fText    0x0046d340       0xa0 build/float_diag.o
 .data$failed_tests
                0x0046d3e0      0x1a0 build/unit_test.o
 .data$file_name.3883
                0x0046d580       0x80 build/file_api.o
 .data$is_callsed.4628
                0x0046d600        0x4 build/unit_test.o
 *fill*         0x0046d604       0x1c 
 .data$lText    0x0046d620       0xe0 build/num_to_str.o
 .data$lText.3546
                0x0046d700       0x40 build/rational_num_diag.o
 .data$lText.3592
                0x0046d740       0x60 build/interfaces_diag.o
 .data$lText.3599
                0x0046d7a0       0x1c build/control_diag.o
 *fill*         0x0046d7bc        0x4 
 .data$lText.3988
                0x0046d7c0       0x80 build/time_diag.o
 .data$lText.4039
                0x0046d840       0x60 build/protocol_diag.o
 .data$lText.4144
                0x0046d8a0      0x1a0 build/str_utils.o
 .data$lText.4245
                0x0046da40       0xe0 build/storage_diag.o
 .data$lText.4250
                0x0046db20       0x80 build/storage_diag.o
 .data$lText.4263
                0x0046dba0       0x80 build/storage_diag.o
 .data$lText.4356
                0x0046dc20       0xe0 build/array_diag.o
 .data$lText.4365
                0x0046dd00      0x220 build/array_diag.o
 .data$name.1632
                0x0046df20       0x60 build/timer_calc_diag.o
 .data$name.1759
                0x0046df80      0x140 build/convert_diag.o
 .data$prev_val.3924
                0x0046e0c0        0x4 build/utils_math.o
 .data$print_buf_stream_en
                0x0046e0c4        0x4 build/print_buffer.o
                0x0046e0c4                print_buf_stream_en
 .data$recursion_protection.34821
                0x0046e0c8        0x4 build/time_mcal.o
 .data$recursion_protection.34838
                0x0046e0cc        0x4 build/time_mcal.o
 .data$send_err_cnt
                0x0046e0d0        0x4 build/system.o
                0x0046e0d0                send_err_cnt
 *fill*         0x0046e0d4        0xc 
 .data$shell_argv.4992
                0x0046e0e0       0x40 build/cli_drv.o
 .data$start_time
                0x0046e120        0x4 build/clock_mcal.o
                0x0046e120                start_time
 *fill*         0x0046e124       0x1c 
 .data$std_out_o
                0x0046e140      0x1a0 build/writer_stdout.o
                0x0046e140                std_out_o
 .data$std_out_o_data
                0x0046e2e0     0x7540 build/writer_stdout.o
 .data$storage_data
                0x00475820      0x200 build/storage.o
 .data$szSpaces.4114
                0x00475a20       0x80 build/data_utils.o
 .data$temp.3690
                0x00475aa0       0x80 build/unit_test_diag.o
 .data$temp.4103
                0x00475b20       0x80 build/common_diag.o
 .data$test_name
                0x00475ba0       0x80 build/unit_test.o
 .data$test_stream
                0x00475c20       0x14 build/print_buffer.o
 *fill*         0x00475c34        0xc 
 .data$test_stream_str
                0x00475c40       0x40 build/print_buffer.o
 .data$test_text
                0x00475c80      0x100 build/test_libc.o
 .data$test_text
                0x00475d80      0x100 build/test_sw_list.o
 .data$text     0x00475e80      0x100 build/shared_array.o
                0x00475e80                text
 .data$text.1751
                0x00475f80       0x14 build/convert_diag.o
 .data$time_ms.34803
                0x00475f94        0x4 build/time_mcal.o
 .data$time_us.34842
                0x00475f98        0x8 build/time_mcal.o
 .data$up_time_us.4030
                0x00475fa0        0x8 build/limiter.o
 .data$val_prev.3993
                0x00475fa8        0x8 build/utils_math.o
 *(.jcr)
 .jcr           0x00475fb0        0x0 c:/mingw/bin/../lib/gcc/mingw32/6.3.0/crtbegin.o
 .jcr           0x00475fb0        0x4 c:/mingw/bin/../lib/gcc/mingw32/6.3.0/crtend.o
                0x00475fb4                __data_end__ = .
 *(.data_cygwin_nocopy)

.rdata          0x00476000     0xec00
 *(.rdata)
 .rdata         0x00476000       0x64 c:/mingw/bin/../lib/gcc/mingw32/6.3.0/crtbegin.o
 .rdata         0x00476064       0x20 build/microcontroller_drv.o
 .rdata         0x00476084       0x20 build/scheduler_config.o
 .rdata         0x004760a4       0x18 build/storage_config.o
 .rdata         0x004760bc        0x8 build/writer_config.o
 .rdata         0x004760c4       0xb0 build/akip1160_mcal.o
 .rdata         0x00476174       0x6c build/akip1160_commands.o
 .rdata         0x004761e0       0x20 build/mcal_diag.o
 .rdata         0x00476200       0xf0 build/clock_general.o
 .rdata         0x004762f0       0xd4 build/clock_diag.o
 .rdata         0x004763c4       0xd4 build/clock_commands.o
 .rdata         0x00476498       0x18 build/clock_mcal.o
 .rdata         0x004764b0      0x118 build/array.o
 .rdata         0x004765c8      0x15c build/array_diag.o
 *fill*         0x00476724        0xc 
 .rdata         0x00476730       0x10 build/fifo_index.o
 .rdata         0x00476740      0xb70 build/convert.o
 .rdata         0x004772b0      0x1d0 build/num_to_str.o
 .rdata         0x00477480       0xb4 build/convert_diag.o
 .rdata         0x00477534       0xd0 build/str_utils.o
 .rdata         0x00477604      0x124 build/str_utils_ex.o
 .rdata         0x00477728       0x44 build/log.o
 .rdata         0x0047776c        0xc build/table_utils.o
 .rdata         0x00477778        0x8 build/writer_stdout.o
 .rdata         0x00477780        0x4 build/log_utils.o
 .rdata         0x00477784      0x154 build/oprintf.o
 .rdata         0x004778d8      0x120 build/log_commands.o
 .rdata         0x004779f8       0x50 build/interface_drv.o
 .rdata         0x00477a48      0x1e4 build/serial_port.o
 .rdata         0x00477c2c      0x13c build/serial_port_diag.o
 .rdata         0x00477d68       0xc4 build/serial_port_commands.o
 .rdata         0x00477e2c       0x84 build/protocol.o
 .rdata         0x00477eb0      0x130 build/protocol_diag.o
 .rdata         0x00477fe0      0x418 build/cli_drv.o
 .rdata         0x004783f8      0x138 build/cli_diag.o
 .rdata         0x00478530      0x254 build/cli_native_commands.o
 .rdata         0x00478784      0x344 build/csv.o
 .rdata         0x00478ac8       0xcc build/string_reader.o
 .rdata         0x00478b94        0xc build/connectivity_diag.o
 .rdata         0x00478ba0       0x34 build/control_diag.o
 .rdata         0x00478bd4      0x138 build/debugger.o
 .rdata         0x00478d0c      0x2a8 build/debugger_commands.o
 .rdata         0x00478fb4       0x48 build/super_cycle.o
 *fill*         0x00478ffc        0x4 
 .rdata         0x00479000       0xb0 build/super_cycle_diag.o
 .rdata         0x004790b0        0xc build/super_cycle_commands.o
 *fill*         0x004790bc        0x4 
 .rdata         0x004790c0      0x120 build/system.o
 .rdata         0x004791e0       0x84 build/scheduler_mcal.o
 *fill*         0x00479264        0xc 
 .rdata         0x00479270      0x290 build/scheduler_diag.o
 .rdata         0x00479500       0xe8 build/scheduler_commands.o
 .rdata         0x004795e8       0x34 build/win_utils.o
 .rdata         0x0047961c        0xc build/rational_num_diag.o
 *fill*         0x00479628        0x8 
 .rdata         0x00479630      0x1e0 build/utils_math.o
 .rdata         0x00479810        0xc build/math_diag.o
 .rdata         0x0047981c       0x14 build/math_commands.o
 .rdata         0x00479830      0x140 build/timer_calc.o
 .rdata         0x00479970       0x10 build/timer_calc_diag.o
 .rdata         0x00479980       0x58 build/timer_calc_commands.o
 .rdata         0x004799d8       0x24 build/health_monitor.o
 .rdata         0x004799fc       0x6c build/health_monitor_commands.o
 *fill*         0x00479a68        0x8 
 .rdata         0x00479a70      0x410 build/time_mcal.o
 .rdata         0x00479e80        0xc build/none_blocking_pause.o
 .rdata         0x00479e8c       0x6c build/time_commands.o
 .rdata         0x00479ef8       0xc4 build/sensitivity_diag.o
 .rdata         0x00479fbc       0x18 build/file_api.o
 *fill*         0x00479fd4        0xc 
 .rdata         0x00479fe0      0x260 build/storage.o
 .rdata         0x0047a240       0x58 build/storage_commands.o
 .rdata         0x0047a298       0x18 build/common_functions.o
 .rdata         0x0047a2b0        0xc build/common_commands.o
 *fill*         0x0047a2bc        0x4 
 .rdata         0x0047a2c0      0x130 build/bit_utils.o
 .rdata         0x0047a3f0       0x70 build/bit_diag.o
 .rdata         0x0047a460       0x24 build/bit_commands.o
 .rdata         0x0047a484        0x4 build/byte_diag.o
 *fill*         0x0047a488        0x8 
 .rdata         0x0047a490       0x30 build/data_utils.o
 .rdata         0x0047a4c0        0x8 build/helper.o
 *fill*         0x0047a4c8        0x8 
 .rdata         0x0047a4d0       0x60 build/float_utils.o
 .rdata         0x0047a530      0x100 build/float_diag.o
 .rdata         0x0047a630      0x2fc build/debug_info.o
 .rdata         0x0047a92c      0x84c build/test_config.o
 *fill*         0x0047b178        0x8 
 .rdata         0x0047b180      0x260 build/unit_test.o
 .rdata         0x0047b3e0      0x4a8 build/unit_test_commands.o
 .rdata         0x0047b888       0xfc build/test_array.o
 .rdata         0x0047b984      0x188 build/test_time_utils.o
 *fill*         0x0047bb0c        0x4 
 .rdata         0x0047bb10      0x2d0 build/float_test.o
 .rdata         0x0047bde0      0x480 build/test_math.o
 .rdata         0x0047c260      0x360 build/test_csv.o
 .rdata         0x0047c5c0       0xb0 build/test_protocol.o
 .rdata         0x0047c670      0x124 build/test_fifo_array.o
 .rdata         0x0047c794      0x138 build/test_fifo_char.o
 .rdata         0x0047c8cc       0xf4 build/test_fifo_indexer.o
 .rdata         0x0047c9c0      0xed0 build/test_convert.o
 .rdata         0x0047d890      0x74c build/test_string_utils.o
 *fill*         0x0047dfdc        0x4 
 .rdata         0x0047dfe0      0x1d0 build/test_libc.o
 .rdata         0x0047e1b0      0x3e0 build/test_sw_list.o
 .rdata         0x0047e590       0x90 build/main.o
 .rdata         0x0047e620       0x30 build/akip1160_diag.o
 .rdata         0x0047e650      0x158 build/log_diag.o
 .rdata         0x0047e7a8       0x9c build/interfaces_diag.o
 .rdata         0x0047e844       0xbc build/csv_diag.o
 .rdata         0x0047e900      0x1a8 build/system_diag.o
 *fill*         0x0047eaa8        0x8 
 .rdata         0x0047eab0      0x360 build/time_diag.o
 .rdata         0x0047ee10      0x6f4 build/storage_diag.o
 *fill*         0x0047f504        0xc 
 .rdata         0x0047f510       0xc0 build/common_diag.o
 .rdata         0x0047f5d0       0xb4 build/unit_test_diag.o
 .rdata         0x0047f684       0x10 build/board_config.o
 .rdata         0x0047f694      0x8d8 build/cli_config.o
 .rdata         0x0047ff6c        0x8 build/string_reader_config.o
 .rdata         0x0047ff74        0xc build/serial_port_config.o
 .rdata         0x0047ff80        0xc build/akip1160_config.o
 .rdata         0x0047ff8c        0x4 c:/mingw/bin/../lib/gcc/mingw32/6.3.0/../../..\libmingw32.a(tlssup.o)
                0x0047ff8c                __dyn_tls_init_callback
 .rdata         0x0047ff90       0xac c:/mingw/bin/../lib/gcc/mingw32/6.3.0/../../..\libmingw32.a(pseudo-reloc.o)
 .rdata         0x0048003c       0x14 c:/mingw/bin/../lib/gcc/mingw32/6.3.0/../../..\libmingwex.a(glob.o)
 .rdata         0x00480050        0x8 c:/mingw/bin/../lib/gcc/mingw32/6.3.0/../../..\libmingwex.a(dirname.o)
 .rdata         0x00480058      0x290 c:/mingw/bin/../lib/gcc/mingw32/6.3.0/../../..\libmingwex.a(pformat.o)
 .rdata         0x004802e8       0x68 c:/mingw/bin/../lib/gcc/mingw32/6.3.0/../../..\libmingwex.a(gdtoa.o)
 *fill*         0x00480350       0x10 
 .rdata         0x00480360      0x160 c:/mingw/bin/../lib/gcc/mingw32/6.3.0/../../..\libmingwex.a(misc.o)
                0x00480380                __tens_D2A
                0x00480440                __tinytens_D2A
                0x00480480                __bigtens_D2A
 *(SORT(.rdata$*))
 .rdata$Akip1160Config
                0x004804c0       0x10 build/akip1160_config.o
                0x004804c0                Akip1160Config
 .rdata$CLOS_BRACE.2956
                0x004804d0        0x4 build/print_format.o
 *fill*         0x004804d4        0xc 
 .rdata$CliCommands
                0x004804e0      0x4a0 build/cli_config.o
 .rdata$CliConfig
                0x00480980       0x14 build/cli_config.o
                0x00480980                CliConfig
 .rdata$ClockInfo
                0x00480994        0x8 build/clock_mcal.o
 *fill*         0x0048099c        0x4 
 .rdata$ExpArray
                0x004809a0       0x80 build/test_convert.o
 .rdata$ExpArray2
                0x00480a20        0x4 build/test_convert.o
 *fill*         0x00480a24       0x1c 
 .rdata$ExpText
                0x00480a40       0x60 build/test_string_utils.o
                0x00480a40                ExpText
 .rdata$FacilityInfo
                0x00480aa0       0xa0 build/system_diag.o
 .rdata$InterfaceNameInfo
                0x00480b40       0x60 build/interfaces_diag.o
 .rdata$LogConfig
                0x00480ba0        0x8 build/log_config.o
                0x00480ba0                LogConfig
 .rdata$MAX_ARG.2958
                0x00480ba8        0x4 build/print_format.o
 .rdata$MIN_ARG.2957
                0x00480bac        0x4 build/print_format.o
 .rdata$Nibble2Char
                0x00480bb0       0x14 build/num_to_str.o
 .rdata$OPEN_BRACE.2955
                0x00480bc4        0x4 build/print_format.o
 *fill*         0x00480bc8       0x18 
 .rdata$ParseDoubleSuffixTestCase
                0x00480be0      0x100 build/test_convert.o
 .rdata$ParseDoubleTestCase
                0x00480ce0      0x360 build/test_convert.o
 .rdata$PhysicalQuantityInfo
                0x00481040       0xe0 build/sensitivity.o
 .rdata$ProgTypeInfo
                0x00481120       0x40 build/system_diag.o
 .rdata$SerialPortConfig
                0x00481160       0x14 build/serial_port_config.o
                0x00481160                SerialPortConfig
 *fill*         0x00481174        0xc 
 .rdata$StorageArray
                0x00481180       0x60 build/storage_config.o
                0x00481180                StorageArray
 .rdata$StorageIdInfo
                0x004811e0        0x8 build/storage.o
 *fill*         0x004811e8       0x18 
 .rdata$StorageSizeInfo
                0x00481200       0xa0 build/storage.o
 .rdata$StringReaderConfig
                0x004812a0       0x40 build/string_reader_config.o
                0x004812a0                StringReaderConfig
 .rdata$StringReaderSpecialCharacters
                0x004812e0       0x40 build/string_reader.o
 .rdata$SuperCycleConfig
                0x00481320       0x10 build/super_cycle_config.o
                0x00481320                SuperCycleConfig
 *fill*         0x00481330       0x10 
 .rdata$SystemInitInstance
                0x00481340       0xa0 build/system.o
                0x00481340                SystemInitInstance
 .rdata$TimeConfig
                0x004813e0        0x4 build/time_config.o
                0x004813e0                TimeConfig
 *fill*         0x004813e4       0x1c 
 .rdata$WriterConfig
                0x00481400       0x20 build/writer_config.o
                0x00481400                WriterConfig
 .rdata$__FUNCTION__.3598
                0x00481420       0x14 build/bit_utils.o
 .rdata$__FUNCTION__.3674
                0x00481434       0x14 build/unit_test_diag.o
 .rdata$__FUNCTION__.3976
                0x00481448        0xc build/test_fifo_char.o
 .rdata$__FUNCTION__.3979
                0x00481454       0x10 build/test_libc.o
 .rdata$__FUNCTION__.3983
                0x00481464       0x18 build/test_fifo_indexer.o
 .rdata$__FUNCTION__.3985
                0x0048147c       0x14 build/test_array.o
 .rdata$__FUNCTION__.3985
                0x00481490       0x20 build/test_fifo_char.o
 .rdata$__FUNCTION__.3990
                0x004814b0       0x18 build/test_libc.o
 .rdata$__FUNCTION__.3993
                0x004814c8       0x14 build/float_test.o
 .rdata$__FUNCTION__.3999
                0x004814dc       0x14 build/test_fifo_indexer.o
 .rdata$__FUNCTION__.4003
                0x004814f0       0x18 build/test_fifo_char.o
 .rdata$__FUNCTION__.4004
                0x00481508       0x14 build/float_test.o
 .rdata$__FUNCTION__.4005
                0x0048151c       0x14 build/test_array.o
 .rdata$__FUNCTION__.4006
                0x00481530       0x18 build/test_libc.o
 .rdata$__FUNCTION__.4009
                0x00481548       0x1c build/float_test.o
 .rdata$__FUNCTION__.4012
                0x00481564       0x10 build/test_fifo_array.o
 .rdata$__FUNCTION__.4014
                0x00481574       0x18 build/test_array.o
 .rdata$__FUNCTION__.4016
                0x0048158c       0x20 build/test_libc.o
 .rdata$__FUNCTION__.4022
                0x004815ac       0x18 build/test_fifo_char.o
 .rdata$__FUNCTION__.4024
                0x004815c4       0x18 build/test_array.o
 .rdata$__FUNCTION__.4024
                0x004815dc       0x18 build/test_libc.o
 .rdata$__FUNCTION__.4030
                0x004815f4       0x20 build/float_test.o
 .rdata$__FUNCTION__.4036
                0x00481614       0x18 build/test_array.o
 .rdata$__FUNCTION__.4036
                0x0048162c       0x14 build/test_fifo_indexer.o
 .rdata$__FUNCTION__.4051
                0x00481640       0x18 build/test_array.o
 .rdata$__FUNCTION__.4063
                0x00481658       0x18 build/test_fifo_array.o
 .rdata$__FUNCTION__.4064
                0x00481670       0x20 build/test_fifo_indexer.o
 .rdata$__FUNCTION__.4068
                0x00481690       0x14 build/test_array.o
 .rdata$__FUNCTION__.4069
                0x004816a4       0x18 build/test_fifo_array.o
 .rdata$__FUNCTION__.4081
                0x004816bc       0x18 build/test_string_utils.o
 .rdata$__FUNCTION__.4084
                0x004816d4       0x18 build/test_array.o
 .rdata$__FUNCTION__.4090
                0x004816ec       0x18 build/test_string_utils.o
 .rdata$__FUNCTION__.4094
                0x00481704       0x18 build/test_fifo_indexer.o
 .rdata$__FUNCTION__.4098
                0x0048171c       0x14 build/test_string_utils.o
 .rdata$__FUNCTION__.4105
                0x00481730       0x14 build/test_string_utils.o
 .rdata$__FUNCTION__.4107
                0x00481744       0x14 build/test_protocol.o
 .rdata$__FUNCTION__.4112
                0x00481758       0x14 build/test_protocol.o
 *fill*         0x0048176c       0x14 
 .rdata$__FUNCTION__.4116
                0x00481780       0x40 build/float_test.o
 .rdata$__FUNCTION__.4121
                0x004817c0       0x14 build/test_string_utils.o
 .rdata$__FUNCTION__.4127
                0x004817d4       0x18 build/test_protocol.o
 .rdata$__FUNCTION__.4132
                0x004817ec       0x1c build/test_protocol.o
 .rdata$__FUNCTION__.4135
                0x00481808       0x14 build/test_string_utils.o
 .rdata$__FUNCTION__.4145
                0x0048181c       0x14 build/test_string_utils.o
 .rdata$__FUNCTION__.4167
                0x00481830       0x14 build/unit_test_commands.o
 .rdata$__FUNCTION__.4171
                0x00481844       0x1c build/test_string_utils.o
 .rdata$__FUNCTION__.4185
                0x00481860       0x18 build/test_string_utils.o
 *fill*         0x00481878        0x8 
 .rdata$__FUNCTION__.4189
                0x00481880       0x40 build/test_string_utils.o
 .rdata$__FUNCTION__.4195
                0x004818c0       0x14 build/unit_test_commands.o
 .rdata$__FUNCTION__.4203
                0x004818d4       0x14 build/test_string_utils.o
 .rdata$__FUNCTION__.4220
                0x004818e8       0x18 build/test_string_utils.o
 .rdata$__FUNCTION__.4225
                0x00481900       0x20 build/test_string_utils.o
 .rdata$__FUNCTION__.4236
                0x00481920       0x18 build/test_string_utils.o
 *fill*         0x00481938        0x8 
 .rdata$__FUNCTION__.4256
                0x00481940       0x40 build/test_string_utils.o
 .rdata$__FUNCTION__.4271
                0x00481980       0x10 build/test_time_utils.o
 .rdata$__FUNCTION__.4278
                0x00481990       0x14 build/test_time_utils.o
 .rdata$__FUNCTION__.4286
                0x004819a4       0x14 build/test_time_utils.o
 .rdata$__FUNCTION__.4299
                0x004819b8       0x14 build/test_time_utils.o
 .rdata$__FUNCTION__.4308
                0x004819cc       0x14 build/test_time_utils.o
 .rdata$__FUNCTION__.4321
                0x004819e0       0x10 build/test_time_utils.o
 .rdata$__FUNCTION__.4330
                0x004819f0       0x10 build/test_time_utils.o
 .rdata$__FUNCTION__.4337
                0x00481a00       0x10 build/test_time_utils.o
 .rdata$__FUNCTION__.4343
                0x00481a10       0x14 build/test_time_utils.o
 .rdata$__FUNCTION__.4349
                0x00481a24       0x14 build/test_time_utils.o
 .rdata$__FUNCTION__.4361
                0x00481a38       0x10 build/test_time_utils.o
 .rdata$__FUNCTION__.4401
                0x00481a48       0x10 build/test_csv.o
 .rdata$__FUNCTION__.4422
                0x00481a58       0x18 build/test_csv.o
 .rdata$__FUNCTION__.4434
                0x00481a70       0x14 build/test_csv.o
 .rdata$__FUNCTION__.4460
                0x00481a84       0x20 build/test_csv.o
 .rdata$__FUNCTION__.4467
                0x00481aa4       0x1c build/test_csv.o
 .rdata$__FUNCTION__.4477
                0x00481ac0       0x14 build/test_csv.o
 .rdata$__FUNCTION__.4488
                0x00481ad4       0x1c build/test_csv.o
 .rdata$__FUNCTION__.4500
                0x00481af0       0x18 build/test_csv.o
 .rdata$__FUNCTION__.4507
                0x00481b08       0x10 build/array.o
 .rdata$__FUNCTION__.4511
                0x00481b18       0x14 build/test_csv.o
 .rdata$__FUNCTION__.4523
                0x00481b2c       0x1c build/test_csv.o
 .rdata$__FUNCTION__.4561
                0x00481b48       0x14 build/unit_test.o
 .rdata$__FUNCTION__.4567
                0x00481b5c       0x14 build/array.o
 .rdata$__FUNCTION__.4580
                0x00481b70       0x10 build/array.o
 .rdata$__FUNCTION__.4587
                0x00481b80       0x1c build/test_convert.o
 .rdata$__FUNCTION__.4588
                0x00481b9c       0x14 build/array.o
 .rdata$__FUNCTION__.4598
                0x00481bb0       0x1c build/test_convert.o
 .rdata$__FUNCTION__.4599
                0x00481bcc       0x18 build/array.o
 .rdata$__FUNCTION__.4611
                0x00481be4       0x10 build/array.o
 *fill*         0x00481bf4        0xc 
 .rdata$__FUNCTION__.4615
                0x00481c00       0x40 build/test_convert.o
 .rdata$__FUNCTION__.4622
                0x00481c40       0x10 build/convert.o
 .rdata$__FUNCTION__.4623
                0x00481c50       0x18 build/test_convert.o
 .rdata$__FUNCTION__.4631
                0x00481c68       0x18 build/test_convert.o
 .rdata$__FUNCTION__.4647
                0x00481c80       0x1c build/test_convert.o
 *fill*         0x00481c9c        0x4 
 .rdata$__FUNCTION__.4663
                0x00481ca0       0x40 build/test_convert.o
 .rdata$__FUNCTION__.4683
                0x00481ce0       0x20 build/test_convert.o
 .rdata$__FUNCTION__.4700
                0x00481d00       0x1c build/test_convert.o
 .rdata$__FUNCTION__.4715
                0x00481d1c       0x1c build/test_convert.o
 .rdata$__FUNCTION__.4732
                0x00481d38       0x10 build/test_math.o
 .rdata$__FUNCTION__.4732
                0x00481d48       0x1c build/test_convert.o
 .rdata$__FUNCTION__.4764
                0x00481d64       0x1c build/test_convert.o
 .rdata$__FUNCTION__.4770
                0x00481d80       0x14 build/test_math.o
 .rdata$__FUNCTION__.4777
                0x00481d94       0x10 build/test_math.o
 *fill*         0x00481da4       0x1c 
 .rdata$__FUNCTION__.4781
                0x00481dc0       0x40 build/test_convert.o
 .rdata$__FUNCTION__.4787
                0x00481e00       0x14 build/test_math.o
 .rdata$__FUNCTION__.4793
                0x00481e14       0x20 build/test_convert.o
 .rdata$__FUNCTION__.4800
                0x00481e34       0x14 build/test_math.o
 .rdata$__FUNCTION__.4806
                0x00481e48       0x14 build/test_math.o
 *fill*         0x00481e5c        0x4 
 .rdata$__FUNCTION__.4812
                0x00481e60       0x40 build/test_convert.o
 .rdata$__FUNCTION__.4817
                0x00481ea0       0x40 build/test_math.o
 .rdata$__FUNCTION__.4826
                0x00481ee0       0x1c build/test_math.o
 .rdata$__FUNCTION__.4831
                0x00481efc       0x18 build/test_math.o
 *fill*         0x00481f14        0xc 
 .rdata$__FUNCTION__.4844
                0x00481f20       0x40 build/test_math.o
 .rdata$__FUNCTION__.4852
                0x00481f60       0x40 build/test_math.o
 .rdata$__FUNCTION__.4882
                0x00481fa0       0x1c build/test_convert.o
 *fill*         0x00481fbc        0x4 
 .rdata$__FUNCTION__.4926
                0x00481fc0       0x20 build/test_convert.o
 .rdata$__FUNCTION__.4937
                0x00481fe0       0x1c build/test_convert.o
 .rdata$__FUNCTION__.4945
                0x00481ffc       0x20 build/test_convert.o
 .rdata$__FUNCTION__.4957
                0x0048201c       0x1c build/test_convert.o
 .rdata$__FUNCTION__.4983
                0x00482038       0x1c build/test_convert.o
 .rdata$__FUNCTION__.5012
                0x00482054       0x1c build/test_convert.o
 .rdata$__FUNCTION__.5048
                0x00482070       0x20 build/test_convert.o
 .rdata$__FUNCTION__.5052
                0x00482090       0x1c build/cli_drv.o
 .rdata$__FUNCTION__.5061
                0x004820ac       0x1c build/test_convert.o
 .rdata$__FUNCTION__.5077
                0x004820c8       0x1c build/test_convert.o
 .rdata$__FUNCTION__.5103
                0x004820e4        0xc build/test_convert.o
 .rdata$__FUNCTION__.5116
                0x004820f0       0x1c build/test_convert.o
 .rdata$__FUNCTION__.5145
                0x0048210c       0x1c build/test_convert.o
 .rdata$__FUNCTION__.5160
                0x00482128       0x18 build/test_sw_list.o
 .rdata$__FUNCTION__.5166
                0x00482140       0x14 build/test_convert.o
 .rdata$__FUNCTION__.5172
                0x00482154        0xc build/test_sw_list.o
 .rdata$__FUNCTION__.5180
                0x00482160       0x14 build/test_convert.o
 .rdata$__FUNCTION__.5182
                0x00482174       0x14 build/test_sw_list.o
 .rdata$__FUNCTION__.5191
                0x00482188       0x10 build/test_sw_list.o
 .rdata$__FUNCTION__.5192
                0x00482198       0x18 build/test_convert.o
 .rdata$__FUNCTION__.5200
                0x004821b0       0x18 build/test_convert.o
 .rdata$__FUNCTION__.5204
                0x004821c8       0x10 build/test_sw_list.o
 .rdata$__FUNCTION__.5210
                0x004821d8       0x18 build/test_convert.o
 .rdata$__FUNCTION__.5215
                0x004821f0       0x1c build/test_sw_list.o
 .rdata$__FUNCTION__.5224
                0x0048220c       0x10 build/test_sw_list.o
 .rdata$__FUNCTION__.5232
                0x0048221c       0x18 build/test_convert.o
 .rdata$__FUNCTION__.5250
                0x00482234       0x18 build/test_convert.o
 .rdata$__FUNCTION__.5270
                0x0048224c       0x18 build/test_convert.o
 .rdata$__FUNCTION__.5276
                0x00482264       0x10 build/test_sw_list.o
 .rdata$__FUNCTION__.5284
                0x00482274       0x1c build/test_convert.o
 .rdata$__FUNCTION__.5287
                0x00482290        0xc build/test_sw_list.o
 .rdata$__FUNCTION__.5294
                0x0048229c       0x1c build/test_convert.o
 .rdata$__FUNCTION__.5294
                0x004822b8       0x10 build/test_sw_list.o
 .rdata$__FUNCTION__.5304
                0x004822c8       0x18 build/test_convert.o
 .rdata$__FUNCTION__.5305
                0x004822e0       0x14 build/test_sw_list.o
 .rdata$__FUNCTION__.5308
                0x004822f4       0x14 build/test_convert.o
 .rdata$__FUNCTION__.5334
                0x00482308       0x10 build/test_sw_list.o
 .rdata$__FUNCTION__.5343
                0x00482318       0x10 build/test_sw_list.o
 .rdata$__FUNCTION__.5353
                0x00482328       0x10 build/test_sw_list.o
 .rdata$__FUNCTION__.5356
                0x00482338       0x1c build/test_convert.o
 .rdata$__FUNCTION__.5363
                0x00482354       0x14 build/test_sw_list.o
 .rdata$__FUNCTION__.5368
                0x00482368       0x18 build/test_convert.o
 .rdata$__FUNCTION__.5373
                0x00482380       0x1c build/test_sw_list.o
 .rdata$__FUNCTION__.5376
                0x0048239c       0x18 build/test_convert.o
 .rdata$__FUNCTION__.5381
                0x004823b4       0x14 build/test_sw_list.o
 .rdata$__FUNCTION__.5384
                0x004823c8       0x18 build/test_convert.o
 .rdata$__FUNCTION__.5392
                0x004823e0       0x18 build/test_convert.o
 .rdata$__FUNCTION__.5392
                0x004823f8       0x14 build/test_sw_list.o
 .rdata$__FUNCTION__.5396
                0x0048240c       0x18 build/test_convert.o
 .rdata$__FUNCTION__.5407
                0x00482424       0x18 build/test_convert.o
 .rdata$__FUNCTION__.5408
                0x0048243c       0x10 build/test_sw_list.o
 .rdata$__FUNCTION__.5415
                0x0048244c       0x18 build/test_convert.o
 .rdata$__FUNCTION__.5416
                0x00482464       0x14 build/test_sw_list.o
 .rdata$__FUNCTION__.5429
                0x00482478       0x18 build/test_convert.o
 .rdata$__FUNCTION__.5430
                0x00482490       0x10 build/test_sw_list.o
 .rdata$__FUNCTION__.5439
                0x004824a0       0x10 build/test_sw_list.o
 .rdata$__FUNCTION__.5443
                0x004824b0       0x18 build/test_convert.o
 .rdata$__FUNCTION__.5447
                0x004824c8       0x10 build/test_sw_list.o
 .rdata$__FUNCTION__.5455
                0x004824d8       0x18 build/test_convert.o
 .rdata$__FUNCTION__.5458
                0x004824f0        0xc build/test_sw_list.o
 .rdata$__FUNCTION__.5469
                0x004824fc       0x20 build/test_convert.o
 .rdata$__FUNCTION__.5479
                0x0048251c        0xc build/test_sw_list.o
 .rdata$__FUNCTION__.5483
                0x00482528       0x14 build/test_convert.o
 .rdata$__FUNCTION__.5523
                0x0048253c       0x14 build/test_sw_list.o
 .rdata$__FUNCTION__.5527
                0x00482550       0x20 build/test_convert.o
 .rdata$__FUNCTION__.5536
                0x00482570       0x18 build/test_convert.o
 .rdata$__FUNCTION__.5543
                0x00482588       0x10 build/test_sw_list.o
 .rdata$__FUNCTION__.5566
                0x00482598       0x18 build/test_convert.o
 .rdata$__FUNCTION__.5571
                0x004825b0       0x14 build/test_convert.o
 .rdata$_tab    0x004825c4       0x14 build/helper.o
 .rdata$_tab.4456
                0x004825d8       0x14 build/debug_info.o
 *fill*         0x004825ec       0x14 
 .rdata$arg1    0x00482600      0x120 build/test_convert.o
 .rdata$arg2    0x00482720        0xc build/test_convert.o
 .rdata$arr.5192
                0x0048272c        0x4 build/test_sw_list.o
 .rdata$arr2    0x00482730        0x4 build/test_fifo_array.o
                0x00482730                arr2
 .rdata$arr3    0x00482734        0x4 build/test_fifo_array.o
                0x00482734                arr3
 .rdata$arr4    0x00482738        0x4 build/test_fifo_array.o
                0x00482738                arr4
 .rdata$arr5    0x0048273c        0x8 build/test_fifo_array.o
                0x0048273c                arr5
 .rdata$array1  0x00482744        0x8 build/test_array.o
                0x00482744                array1
 .rdata$array_src
                0x0048274c        0xc build/test_sw_list.o
 .rdata$bit_array1
                0x00482758       0x10 build/test_array.o
 .rdata$bit_array2
                0x00482768       0x14 build/test_array.o
 .rdata$cols.3675
                0x0048277c       0x18 build/unit_test_diag.o
 *fill*         0x00482794        0xc 
 .rdata$cols.3709
                0x004827a0       0x40 build/log_diag.o
 .rdata$cols.3881
                0x004827e0       0x60 build/super_cycle_diag.o
 .rdata$cols.3969
                0x00482840       0x40 build/debugger.o
 .rdata$cols.4048
                0x00482880       0x40 build/time_diag.o
 .rdata$cols.4052
                0x004828c0       0x20 build/cli_diag.o
 .rdata$cols.4061
                0x004828e0       0x20 build/cli_diag.o
 .rdata$cols.4223
                0x00482900       0x60 build/scheduler_diag.o
 .rdata$cols.4242
                0x00482960       0x40 build/array_diag.o
 .rdata$cols.4243
                0x004829a0       0x60 build/scheduler_diag.o
 .rdata$cols.4256
                0x00482a00       0x40 build/array_diag.o
 .rdata$cols.4262
                0x00482a40       0x60 build/scheduler_diag.o
 .rdata$cols.4269
                0x00482aa0       0x40 build/array_diag.o
 .rdata$cols.4478
                0x00482ae0       0x40 build/debug_info.o
 .rdata$cols.5423
                0x00482b20       0x40 build/cli_native_commands.o
 .rdata$data1   0x00482b60        0x4 build/float_test.o
 .rdata$data2   0x00482b64        0x4 build/float_test.o
 .rdata$exp_arr_4_5
                0x00482b68        0xc build/test_fifo_array.o
                0x00482b68                exp_arr_4_5
 .rdata$exp_array
                0x00482b74        0x8 build/test_array.o
 .rdata$exp_array23
                0x00482b7c        0x8 build/test_array.o
 .rdata$exp_array3
                0x00482b84        0x8 build/test_array.o
 .rdata$exp_shifted_array
                0x00482b8c        0xc build/test_array.o
 .rdata$exp_shifted_array2
                0x00482b98        0xc build/test_array.o
 .rdata$hex2asciiLUT
                0x00482ba4       0x10 build/common_diag.o
 .rdata$init_array
                0x00482bb4        0xc build/test_array.o
 .rdata$out_array1_exp
                0x00482bc0       0x10 build/test_string_utils.o
 .rdata$out_array2_exp
                0x00482bd0        0x4 build/test_string_utils.o
 *fill*         0x00482bd4        0xc 
 .rdata$rounders
                0x00482be0       0x40 build/convert.o
 .rdata$row_bottom_format.3575
                0x00482c20       0x10 build/table_utils.o
 .rdata$row_header_format.3602
                0x00482c30       0x10 build/table_utils.o
 .rdata$row_separator_format.3569
                0x00482c40       0x10 build/table_utils.o
 .rdata$row_top_format.3563
                0x00482c50       0x10 build/table_utils.o
 .rdata$symbols
                0x00482c60       0x20 build/num_to_str.o
 .rdata$testStrArray
                0x00482c80       0x40 build/test_string_utils.o
 .rdata$test_list
                0x00482cc0      0x4c0 build/test_config.o
                0x00482cc0                test_list
 .rdata$test_text_exp
                0x00483180      0x100 build/test_libc.o
 .rdata$test_text_exp
                0x00483280      0x100 build/test_sw_list.o
 .rdata$zzz     0x00483380       0x14 c:/mingw/bin/../lib/gcc/mingw32/6.3.0/../../../crt2.o
 .rdata$zzz     0x00483394       0x14 c:/mingw/bin/../lib/gcc/mingw32/6.3.0/crtbegin.o
 .rdata$zzz     0x004833a8       0x24 build/microcontroller_drv.o
 .rdata$zzz     0x004833cc       0x24 build/microcontroller_diag.o
 .rdata$zzz     0x004833f0       0x24 build/microcontroller_commands.o
 .rdata$zzz     0x00483414       0x24 build/cpu_x86.o
 .rdata$zzz     0x00483438       0x24 build/scheduler_config.o
 .rdata$zzz     0x0048345c       0x24 build/clock_config.o
 .rdata$zzz     0x00483480       0x24 build/super_cycle_config.o
 .rdata$zzz     0x004834a4       0x24 build/storage_config.o
 .rdata$zzz     0x004834c8       0x24 build/writer_config.o
 .rdata$zzz     0x004834ec       0x24 build/akip1160_mcal.o
 .rdata$zzz     0x00483510       0x24 build/akip1160_commands.o
 .rdata$zzz     0x00483534       0x24 build/applications_commands.o
 .rdata$zzz     0x00483558       0x24 build/mcal_diag.o
 .rdata$zzz     0x0048357c       0x24 build/clock_general.o
 .rdata$zzz     0x004835a0       0x24 build/clock_diag.o
 .rdata$zzz     0x004835c4       0x24 build/clock_commands.o
 .rdata$zzz     0x004835e8       0x24 build/hal_diag.o
 .rdata$zzz     0x0048360c       0x24 build/clock_mcal.o
 .rdata$zzz     0x00483630       0x24 build/clock_custom_diag.o
 .rdata$zzz     0x00483654       0x24 build/clock_custom_commands.o
 .rdata$zzz     0x00483678       0x24 build/array.o
 .rdata$zzz     0x0048369c       0x24 build/array_diag.o
 .rdata$zzz     0x004836c0       0x24 build/array_commands.o
 .rdata$zzz     0x004836e4       0x24 build/fifo_index.o
 .rdata$zzz     0x00483708       0x24 build/fifo_array.o
 .rdata$zzz     0x0048372c       0x24 build/fifo_char.o
 .rdata$zzz     0x00483750       0x24 build/convert.o
 .rdata$zzz     0x00483774       0x24 build/num_to_str.o
 .rdata$zzz     0x00483798       0x24 build/convert_diag.o
 .rdata$zzz     0x004837bc       0x24 build/str_utils.o
 .rdata$zzz     0x004837e0       0x24 build/str_utils_ex.o
 .rdata$zzz     0x00483804       0x24 build/log.o
 .rdata$zzz     0x00483828       0x24 build/table_utils.o
 .rdata$zzz     0x0048384c       0x24 build/writer.o
 .rdata$zzz     0x00483870       0x24 build/writer_stdout.o
 .rdata$zzz     0x00483894       0x24 build/log_utils.o
 .rdata$zzz     0x004838b8       0x24 build/oprintf.o
 .rdata$zzz     0x004838dc       0x24 build/print_format.o
 .rdata$zzz     0x00483900       0x24 build/log_commands.o
 .rdata$zzz     0x00483924       0x24 build/interface_drv.o
 .rdata$zzz     0x00483948       0x24 build/if_config.o
 .rdata$zzz     0x0048396c       0x24 build/serial_port.o
 .rdata$zzz     0x00483990       0x24 build/serial_port_diag.o
 .rdata$zzz     0x004839b4       0x24 build/serial_port_commands.o
 .rdata$zzz     0x004839d8       0x24 build/protocol.o
 .rdata$zzz     0x004839fc       0x24 build/protocol_diag.o
 .rdata$zzz     0x00483a20       0x24 build/cli_drv.o
 .rdata$zzz     0x00483a44       0x24 build/cli_general_config.o
 .rdata$zzz     0x00483a68       0x24 build/cli_diag.o
 .rdata$zzz     0x00483a8c       0x24 build/cli_native_commands.o
 .rdata$zzz     0x00483ab0       0x24 build/csv.o
 .rdata$zzz     0x00483ad4       0x24 build/string_reader.o
 .rdata$zzz     0x00483af8       0x24 build/string_reader_commands.o
 .rdata$zzz     0x00483b1c       0x24 build/connectivity.o
 .rdata$zzz     0x00483b40       0x24 build/connectivity_commands.o
 .rdata$zzz     0x00483b64       0x24 build/connectivity_diag.o
 .rdata$zzz     0x00483b88       0x24 build/control_commands.o
 .rdata$zzz     0x00483bac       0x24 build/control_diag.o
 .rdata$zzz     0x00483bd0       0x24 build/debugger.o
 .rdata$zzz     0x00483bf4       0x24 build/debugger_commands.o
 .rdata$zzz     0x00483c18       0x24 build/super_cycle.o
 .rdata$zzz     0x00483c3c       0x24 build/super_cycle_diag.o
 .rdata$zzz     0x00483c60       0x24 build/super_cycle_commands.o
 .rdata$zzz     0x00483c84       0x24 build/system.o
 .rdata$zzz     0x00483ca8       0x24 build/scheduler_mcal.o
 .rdata$zzz     0x00483ccc       0x24 build/scheduler_diag.o
 .rdata$zzz     0x00483cf0       0x24 build/scheduler_commands.o
 .rdata$zzz     0x00483d14       0x24 build/win_utils.o
 .rdata$zzz     0x00483d38       0x24 build/pc_commands.o
 .rdata$zzz     0x00483d5c       0x24 build/rational_num.o
 .rdata$zzz     0x00483d80       0x24 build/rational_num_diag.o
 .rdata$zzz     0x00483da4       0x24 build/limiter.o
 .rdata$zzz     0x00483dc8       0x24 build/utils_math.o
 .rdata$zzz     0x00483dec       0x24 build/math_diag.o
 .rdata$zzz     0x00483e10       0x24 build/math_commands.o
 .rdata$zzz     0x00483e34       0x24 build/timer_calc.o
 .rdata$zzz     0x00483e58       0x24 build/timer_calc_diag.o
 .rdata$zzz     0x00483e7c       0x24 build/timer_calc_commands.o
 .rdata$zzz     0x00483ea0       0x24 build/computing.o
 .rdata$zzz     0x00483ec4       0x24 build/computing_commands.o
 .rdata$zzz     0x00483ee8       0x24 build/health_monitor.o
 .rdata$zzz     0x00483f0c       0x24 build/health_monitor_commands.o
 .rdata$zzz     0x00483f30       0x24 build/time_mcal.o
 .rdata$zzz     0x00483f54       0x24 build/none_blocking_pause.o
 .rdata$zzz     0x00483f78       0x24 build/time_commands.o
 .rdata$zzz     0x00483f9c       0x24 build/sensitivity.o
 .rdata$zzz     0x00483fc0       0x24 build/sensitivity_diag.o
 .rdata$zzz     0x00483fe4       0x24 build/sensitivity_commands.o
 .rdata$zzz     0x00484008       0x24 build/file_api.o
 .rdata$zzz     0x0048402c       0x24 build/storage.o
 .rdata$zzz     0x00484050       0x24 build/storage_commands.o
 .rdata$zzz     0x00484074       0x24 build/shared_array.o
 .rdata$zzz     0x00484098       0x24 build/common_functions.o
 .rdata$zzz     0x004840bc       0x24 build/common_commands.o
 .rdata$zzz     0x004840e0       0x24 build/bit_utils.o
 .rdata$zzz     0x00484104       0x24 build/bit_diag.o
 .rdata$zzz     0x00484128       0x24 build/bit_commands.o
 .rdata$zzz     0x0048414c       0x24 build/byte_utils.o
 .rdata$zzz     0x00484170       0x24 build/word_utils.o
 .rdata$zzz     0x00484194       0x24 build/dword_utils.o
 .rdata$zzz     0x004841b8       0x24 build/qword_utils.o
 .rdata$zzz     0x004841dc       0x24 build/byte_diag.o
 .rdata$zzz     0x00484200       0x24 build/data_utils.o
 .rdata$zzz     0x00484224       0x24 build/helper.o
 .rdata$zzz     0x00484248       0x24 build/float_utils.o
 .rdata$zzz     0x0048426c       0x24 build/float_diag.o
 .rdata$zzz     0x00484290       0x24 build/debug_info.o
 .rdata$zzz     0x004842b4       0x24 build/print_buffer.o
 .rdata$zzz     0x004842d8       0x24 build/test_config.o
 .rdata$zzz     0x004842fc       0x24 build/unit_test.o
 .rdata$zzz     0x00484320       0x24 build/unit_test_commands.o
 .rdata$zzz     0x00484344       0x24 build/test_array.o
 .rdata$zzz     0x00484368       0x24 build/test_time_utils.o
 .rdata$zzz     0x0048438c       0x24 build/float_test.o
 .rdata$zzz     0x004843b0       0x24 build/test_math.o
 .rdata$zzz     0x004843d4       0x24 build/test_csv.o
 .rdata$zzz     0x004843f8       0x24 build/test_protocol.o
 .rdata$zzz     0x0048441c       0x24 build/test_fifo_array.o
 .rdata$zzz     0x00484440       0x24 build/test_fifo_char.o
 .rdata$zzz     0x00484464       0x24 build/test_fifo_indexer.o
 .rdata$zzz     0x00484488       0x24 build/test_convert.o
 .rdata$zzz     0x004844ac       0x24 build/test_string_utils.o
 .rdata$zzz     0x004844d0       0x24 build/test_libc.o
 .rdata$zzz     0x004844f4       0x24 build/test_sw_list.o
 .rdata$zzz     0x00484518       0x24 build/main.o
 .rdata$zzz     0x0048453c       0x24 build/akip1160_diag.o
 .rdata$zzz     0x00484560       0x24 build/log_diag.o
 .rdata$zzz     0x00484584       0x24 build/interfaces_diag.o
 .rdata$zzz     0x004845a8       0x24 build/csv_diag.o
 .rdata$zzz     0x004845cc       0x24 build/system_diag.o
 .rdata$zzz     0x004845f0       0x24 build/time_diag.o
 .rdata$zzz     0x00484614       0x24 build/storage_diag.o
 .rdata$zzz     0x00484638       0x24 build/common_diag.o
 .rdata$zzz     0x0048465c       0x24 build/unit_test_diag.o
 .rdata$zzz     0x00484680       0x24 build/board_config.o
 .rdata$zzz     0x004846a4       0x24 build/board_monitor.o
 .rdata$zzz     0x004846c8       0x24 build/cli_config.o
 .rdata$zzz     0x004846ec       0x24 build/mem_config.o
 .rdata$zzz     0x00484710       0x24 build/log_config.o
 .rdata$zzz     0x00484734       0x24 build/string_reader_config.o
 .rdata$zzz     0x00484758       0x24 build/serial_port_config.o
 .rdata$zzz     0x0048477c       0x24 build/time_config.o
 .rdata$zzz     0x004847a0       0x24 build/akip1160_config.o
 .rdata$zzz     0x004847c4       0x24 build/third_party_main.o
 .rdata$zzz     0x004847e8       0x14 c:/mingw/bin/../lib/gcc/mingw32/6.3.0/../../..\libmingw32.a(CRTglob.o)
 .rdata$zzz     0x004847fc       0x14 c:/mingw/bin/../lib/gcc/mingw32/6.3.0/../../..\libmingw32.a(setargv.o)
 .rdata$zzz     0x00484810       0x14 c:/mingw/bin/../lib/gcc/mingw32/6.3.0/../../..\libmingw32.a(CRTfmode.o)
 .rdata$zzz     0x00484824       0x14 c:/mingw/bin/../lib/gcc/mingw32/6.3.0/../../..\libmingw32.a(CRT_fp10.o)
 .rdata$zzz     0x00484838       0x14 c:/mingw/bin/../lib/gcc/mingw32/6.3.0/../../..\libmingw32.a(txtmode.o)
 .rdata$zzz     0x0048484c       0x14 c:/mingw/bin/../lib/gcc/mingw32/6.3.0/../../..\libmingw32.a(gccmain.o)
 .rdata$zzz     0x00484860       0x14 c:/mingw/bin/../lib/gcc/mingw32/6.3.0/../../..\libmingw32.a(tlssup.o)
 .rdata$zzz     0x00484874       0x14 c:/mingw/bin/../lib/gcc/mingw32/6.3.0/../../..\libmingw32.a(tlsthrd.o)
 .rdata$zzz     0x00484888       0x14 c:/mingw/bin/../lib/gcc/mingw32/6.3.0/../../..\libmingw32.a(pseudo-reloc.o)
 .rdata$zzz     0x0048489c       0x14 c:/mingw/bin/../lib/gcc/mingw32/6.3.0/../../..\libmingw32.a(pseudo-reloc-list.o)
 .rdata$zzz     0x004848b0       0x14 c:/mingw/bin/../lib/gcc/mingw32/6.3.0/../../..\libmingw32.a(crtst.o)
 .rdata$zzz     0x004848c4       0x14 c:/mingw/bin/../lib/gcc/mingw32/6.3.0\libgcc.a(_ctors.o)
 .rdata$zzz     0x004848d8       0x14 c:/mingw/bin/../lib/gcc/mingw32/6.3.0\libgcc.a(_divdi3.o)
 .rdata$zzz     0x004848ec       0x14 c:/mingw/bin/../lib/gcc/mingw32/6.3.0\libgcc.a(_udivdi3.o)
 .rdata$zzz     0x00484900       0x14 c:/mingw/bin/../lib/gcc/mingw32/6.3.0\libgcc.a(_umoddi3.o)
 .rdata$zzz     0x00484914       0x14 c:/mingw/bin/../lib/gcc/mingw32/6.3.0/../../..\libmingwex.a(fesetenv.o)
 .rdata$zzz     0x00484928       0x14 c:/mingw/bin/../lib/gcc/mingw32/6.3.0/../../..\libmingwex.a(fmax.o)
 .rdata$zzz     0x0048493c       0x14 c:/mingw/bin/../lib/gcc/mingw32/6.3.0/../../..\libmingwex.a(fmaxf.o)
 .rdata$zzz     0x00484950       0x14 c:/mingw/bin/../lib/gcc/mingw32/6.3.0/../../..\libmingwex.a(fmodf.o)
 .rdata$zzz     0x00484964       0x14 c:/mingw/bin/../lib/gcc/mingw32/6.3.0/../../..\libmingwex.a(fpclassifyf.o)
 .rdata$zzz     0x00484978       0x14 c:/mingw/bin/../lib/gcc/mingw32/6.3.0/../../..\libmingwex.a(rintf.o)
 .rdata$zzz     0x0048498c       0x14 c:/mingw/bin/../lib/gcc/mingw32/6.3.0/../../..\libmingwex.a(snprintf.o)
 .rdata$zzz     0x004849a0       0x14 c:/mingw/bin/../lib/gcc/mingw32/6.3.0/../../..\libmingwex.a(vfprintf.o)
 .rdata$zzz     0x004849b4       0x14 c:/mingw/bin/../lib/gcc/mingw32/6.3.0/../../..\libmingwex.a(vprintf.o)
 .rdata$zzz     0x004849c8       0x14 c:/mingw/bin/../lib/gcc/mingw32/6.3.0/../../..\libmingwex.a(vsnprintf.o)
 .rdata$zzz     0x004849dc       0x14 c:/mingw/bin/../lib/gcc/mingw32/6.3.0/../../..\libmingwex.a(vsprintf.o)
 .rdata$zzz     0x004849f0       0x14 c:/mingw/bin/../lib/gcc/mingw32/6.3.0/../../..\libmingwex.a(glob.o)
 .rdata$zzz     0x00484a04       0x14 c:/mingw/bin/../lib/gcc/mingw32/6.3.0/../../..\libmingwex.a(dirname.o)
 .rdata$zzz     0x00484a18       0x14 c:/mingw/bin/../lib/gcc/mingw32/6.3.0/../../..\libmingwex.a(dirent.o)
 .rdata$zzz     0x00484a2c       0x14 c:/mingw/bin/../lib/gcc/mingw32/6.3.0/../../..\libmingwex.a(pformat.o)
 .rdata$zzz     0x00484a40       0x14 c:/mingw/bin/../lib/gcc/mingw32/6.3.0/../../..\libmingwex.a(varofmt.o)
 .rdata$zzz     0x00484a54       0x14 c:/mingw/bin/../lib/gcc/mingw32/6.3.0/../../..\libmingwex.a(mbrtowc.o)
 .rdata$zzz     0x00484a68       0x14 c:/mingw/bin/../lib/gcc/mingw32/6.3.0/../../..\libmingwex.a(wcrtomb.o)
 .rdata$zzz     0x00484a7c       0x14 c:/mingw/bin/../lib/gcc/mingw32/6.3.0/../../..\libmingwex.a(gdtoa.o)
 .rdata$zzz     0x00484a90       0x14 c:/mingw/bin/../lib/gcc/mingw32/6.3.0/../../..\libmingwex.a(gmisc.o)
 .rdata$zzz     0x00484aa4       0x14 c:/mingw/bin/../lib/gcc/mingw32/6.3.0/../../..\libmingwex.a(dmisc.o)
 .rdata$zzz     0x00484ab8       0x14 c:/mingw/bin/../lib/gcc/mingw32/6.3.0/../../..\libmingwex.a(misc.o)
 .rdata$zzz     0x00484acc       0x14 c:/mingw/bin/../lib/gcc/mingw32/6.3.0/crtend.o
                0x00484ae0                __rt_psrelocs_start = .
 *(.rdata_runtime_pseudo_reloc)
                0x00484ae0                __rt_psrelocs_end = .
                0x00000000                __rt_psrelocs_size = (__rt_psrelocs_end - __rt_psrelocs_start)
                0x00484ae0                ___RUNTIME_PSEUDO_RELOC_LIST_END__ = .
                0x00484ae0                __RUNTIME_PSEUDO_RELOC_LIST_END__ = .
                0x00484ae0                ___RUNTIME_PSEUDO_RELOC_LIST__ = (. - __rt_psrelocs_size)
                0x00484ae0                __RUNTIME_PSEUDO_RELOC_LIST__ = (. - __rt_psrelocs_size)

.eh_frame       0x00485000     0xaa00
 *(.eh_frame*)
 .eh_frame      0x00485000       0xb8 c:/mingw/bin/../lib/gcc/mingw32/6.3.0/../../../crt2.o
 .eh_frame      0x004850b8       0x64 c:/mingw/bin/../lib/gcc/mingw32/6.3.0/crtbegin.o
                0x004850b8                __EH_FRAME_BEGIN__
 .eh_frame      0x0048511c       0x90 build/microcontroller_drv.o
 .eh_frame      0x004851ac       0x58 build/cpu_x86.o
 .eh_frame      0x00485204       0x30 build/scheduler_config.o
 .eh_frame      0x00485234       0x30 build/super_cycle_config.o
 .eh_frame      0x00485264       0x30 build/storage_config.o
 .eh_frame      0x00485294       0x30 build/writer_config.o
 .eh_frame      0x004852c4      0x154 build/akip1160_mcal.o
 .eh_frame      0x00485418       0x64 build/akip1160_commands.o
 .eh_frame      0x0048547c       0x60 build/mcal_diag.o
 .eh_frame      0x004854dc      0x1cc build/clock_general.o
 .eh_frame      0x004856a8       0xac build/clock_diag.o
 .eh_frame      0x00485754       0xc4 build/clock_commands.o
 .eh_frame      0x00485818      0x170 build/clock_mcal.o
 .eh_frame      0x00485988       0x48 build/clock_custom_diag.o
 .eh_frame      0x004859d0       0x90 build/clock_custom_commands.o
 .eh_frame      0x00485a60      0x528 build/array.o
 .eh_frame      0x00485f88      0x260 build/array_diag.o
 .eh_frame      0x004861e8       0x30 build/array_commands.o
 .eh_frame      0x00486218       0xfc build/fifo_index.o
 .eh_frame      0x00486314       0xfc build/fifo_array.o
 .eh_frame      0x00486410      0x184 build/fifo_char.o
 .eh_frame      0x00486594      0x834 build/convert.o
 .eh_frame      0x00486dc8      0x370 build/num_to_str.o
 .eh_frame      0x00487138       0xc0 build/convert_diag.o
 .eh_frame      0x004871f8      0x224 build/str_utils.o
 .eh_frame      0x0048741c       0xc0 build/str_utils_ex.o
 .eh_frame      0x004874dc      0x3cc build/log.o
 .eh_frame      0x004878a8       0xf8 build/table_utils.o
 .eh_frame      0x004879a0      0x244 build/writer.o
 .eh_frame      0x00487be4       0xa4 build/writer_stdout.o
 .eh_frame      0x00487c88       0xc0 build/log_utils.o
 .eh_frame      0x00487d48      0x13c build/oprintf.o
 .eh_frame      0x00487e84      0x27c build/print_format.o
 .eh_frame      0x00488100       0xc8 build/log_commands.o
 .eh_frame      0x004881c8       0x64 build/interface_drv.o
 .eh_frame      0x0048822c      0x270 build/serial_port.o
 .eh_frame      0x0048849c       0xa4 build/serial_port_diag.o
 .eh_frame      0x00488540       0x94 build/serial_port_commands.o
 .eh_frame      0x004885d4       0xec build/protocol.o
 .eh_frame      0x004886c0      0x148 build/protocol_diag.o
 .eh_frame      0x00488808      0x300 build/cli_drv.o
 .eh_frame      0x00488b08       0xd0 build/cli_diag.o
 .eh_frame      0x00488bd8      0x154 build/cli_native_commands.o
 .eh_frame      0x00488d2c      0x320 build/csv.o
 .eh_frame      0x0048904c      0x21c build/string_reader.o
 .eh_frame      0x00489268       0x30 build/connectivity.o
 .eh_frame      0x00489298       0x30 build/connectivity_diag.o
 .eh_frame      0x004892c8       0x4c build/control_diag.o
 .eh_frame      0x00489314       0xd0 build/debugger.o
 .eh_frame      0x004893e4      0x134 build/debugger_commands.o
 .eh_frame      0x00489518      0x17c build/super_cycle.o
 .eh_frame      0x00489694       0x58 build/super_cycle_diag.o
 .eh_frame      0x004896ec       0x60 build/super_cycle_commands.o
 .eh_frame      0x0048974c       0xc4 build/system.o
 .eh_frame      0x00489810      0x120 build/scheduler_mcal.o
 .eh_frame      0x00489930       0xf8 build/scheduler_diag.o
 .eh_frame      0x00489a28       0xc4 build/scheduler_commands.o
 .eh_frame      0x00489aec       0xa4 build/win_utils.o
 .eh_frame      0x00489b90       0x2c build/pc_commands.o
 .eh_frame      0x00489bbc       0x54 build/rational_num.o
 .eh_frame      0x00489c10       0x3c build/rational_num_diag.o
 .eh_frame      0x00489c4c       0x90 build/limiter.o
 .eh_frame      0x00489cdc      0x364 build/utils_math.o
 .eh_frame      0x0048a040       0x30 build/math_diag.o
 .eh_frame      0x0048a070       0x34 build/math_commands.o
 .eh_frame      0x0048a0a4       0x68 build/timer_calc.o
 .eh_frame      0x0048a10c       0x30 build/timer_calc_diag.o
 .eh_frame      0x0048a13c       0x34 build/timer_calc_commands.o
 .eh_frame      0x0048a170       0x60 build/health_monitor.o
 .eh_frame      0x0048a1d0       0x48 build/health_monitor_commands.o
 .eh_frame      0x0048a218      0x4f0 build/time_mcal.o
 .eh_frame      0x0048a708       0x60 build/none_blocking_pause.o
 .eh_frame      0x0048a768       0xa8 build/time_commands.o
 .eh_frame      0x0048a810       0x48 build/sensitivity.o
 .eh_frame      0x0048a858       0x30 build/sensitivity_diag.o
 .eh_frame      0x0048a888       0xf0 build/file_api.o
 .eh_frame      0x0048a978      0x134 build/storage.o
 .eh_frame      0x0048aaac       0x34 build/storage_commands.o
 .eh_frame      0x0048aae0       0x9c build/common_functions.o
 .eh_frame      0x0048ab7c       0x30 build/common_commands.o
 .eh_frame      0x0048abac      0x3b8 build/bit_utils.o
 .eh_frame      0x0048af64       0x54 build/bit_diag.o
 .eh_frame      0x0048afb8       0x30 build/bit_commands.o
 .eh_frame      0x0048afe8       0xf0 build/byte_utils.o
 .eh_frame      0x0048b0d8       0x60 build/word_utils.o
 .eh_frame      0x0048b138       0x60 build/dword_utils.o
 .eh_frame      0x0048b198      0x104 build/qword_utils.o
 .eh_frame      0x0048b29c       0x30 build/byte_diag.o
 .eh_frame      0x0048b2cc      0x390 build/data_utils.o
 .eh_frame      0x0048b65c       0x9c build/helper.o
 .eh_frame      0x0048b6f8      0x1c0 build/float_utils.o
 .eh_frame      0x0048b8b8       0x4c build/float_diag.o
 .eh_frame      0x0048b904      0x358 build/debug_info.o
 .eh_frame      0x0048bc5c       0x58 build/print_buffer.o
 .eh_frame      0x0048bcb4       0x30 build/test_config.o
 .eh_frame      0x0048bce4      0x224 build/unit_test.o
 .eh_frame      0x0048bf08       0xc0 build/unit_test_commands.o
 .eh_frame      0x0048bfc8       0xf8 build/test_array.o
 .eh_frame      0x0048c0c0      0x184 build/test_time_utils.o
 .eh_frame      0x0048c244       0xa0 build/float_test.o
 .eh_frame      0x0048c2e4      0x19c build/test_math.o
 .eh_frame      0x0048c480      0x14c build/test_csv.o
 .eh_frame      0x0048c5cc       0x7c build/test_protocol.o
 .eh_frame      0x0048c648       0x74 build/test_fifo_array.o
 .eh_frame      0x0048c6bc       0xc0 build/test_fifo_char.o
 .eh_frame      0x0048c77c       0xa4 build/test_fifo_indexer.o
 .eh_frame      0x0048c820      0x6c8 build/test_convert.o
 .eh_frame      0x0048cee8      0x1f4 build/test_string_utils.o
 .eh_frame      0x0048d0dc       0xc4 build/test_libc.o
 .eh_frame      0x0048d1a0      0x380 build/test_sw_list.o
 .eh_frame      0x0048d520       0x44 build/main.o
 .eh_frame      0x0048d564       0x90 build/akip1160_diag.o
 .eh_frame      0x0048d5f4       0xc8 build/log_diag.o
 .eh_frame      0x0048d6bc       0xc0 build/interfaces_diag.o
 .eh_frame      0x0048d77c       0xa0 build/csv_diag.o
 .eh_frame      0x0048d81c       0xa4 build/system_diag.o
 .eh_frame      0x0048d8c0      0x250 build/time_diag.o
 .eh_frame      0x0048db10      0x124 build/storage_diag.o
 .eh_frame      0x0048dc34      0x2ec build/common_diag.o
 .eh_frame      0x0048df20       0xc0 build/unit_test_diag.o
 .eh_frame      0x0048dfe0       0x30 build/board_config.o
 .eh_frame      0x0048e010       0x30 build/board_monitor.o
 .eh_frame      0x0048e040       0x48 build/cli_config.o
 .eh_frame      0x0048e088       0x2c build/mem_config.o
 .eh_frame      0x0048e0b4       0x30 build/log_config.o
 .eh_frame      0x0048e0e4       0x30 build/string_reader_config.o
 .eh_frame      0x0048e114       0x30 build/serial_port_config.o
 .eh_frame      0x0048e144       0x30 build/time_config.o
 .eh_frame      0x0048e174       0x30 build/akip1160_config.o
 .eh_frame      0x0048e1a4       0x58 c:/mingw/bin/../lib/gcc/mingw32/6.3.0/../../..\libmingw32.a(setargv.o)
 .eh_frame      0x0048e1fc       0x40 c:/mingw/bin/../lib/gcc/mingw32/6.3.0/../../..\libmingw32.a(cpu_features.o)
 .eh_frame      0x0048e23c       0x68 c:/mingw/bin/../lib/gcc/mingw32/6.3.0/../../..\libmingw32.a(gccmain.o)
 .eh_frame      0x0048e2a4       0x88 c:/mingw/bin/../lib/gcc/mingw32/6.3.0/../../..\libmingw32.a(tlssup.o)
 .eh_frame      0x0048e32c      0x108 c:/mingw/bin/../lib/gcc/mingw32/6.3.0/../../..\libmingw32.a(tlsthrd.o)
 .eh_frame      0x0048e434       0xd8 c:/mingw/bin/../lib/gcc/mingw32/6.3.0/../../..\libmingw32.a(pseudo-reloc.o)
 .eh_frame      0x0048e50c       0x58 c:/mingw/bin/../lib/gcc/mingw32/6.3.0\libgcc.a(_divdi3.o)
 .eh_frame      0x0048e564       0x9c c:/mingw/bin/../lib/gcc/mingw32/6.3.0\libgcc.a(_udivdi3.o)
 .eh_frame      0x0048e600       0x9c c:/mingw/bin/../lib/gcc/mingw32/6.3.0\libgcc.a(_umoddi3.o)
 .eh_frame      0x0048e69c       0x34 c:/mingw/bin/../lib/gcc/mingw32/6.3.0/../../..\libmingwex.a(fesetenv.o)
 .eh_frame      0x0048e6d0       0x2c c:/mingw/bin/../lib/gcc/mingw32/6.3.0/../../..\libmingwex.a(fmax.o)
 .eh_frame      0x0048e6fc       0x2c c:/mingw/bin/../lib/gcc/mingw32/6.3.0/../../..\libmingwex.a(fmaxf.o)
 .eh_frame      0x0048e728       0x2c c:/mingw/bin/../lib/gcc/mingw32/6.3.0/../../..\libmingwex.a(fmodf.o)
 .eh_frame      0x0048e754       0x2c c:/mingw/bin/../lib/gcc/mingw32/6.3.0/../../..\libmingwex.a(fpclassifyf.o)
 .eh_frame      0x0048e780       0x2c c:/mingw/bin/../lib/gcc/mingw32/6.3.0/../../..\libmingwex.a(rintf.o)
 .eh_frame      0x0048e7ac       0x30 c:/mingw/bin/../lib/gcc/mingw32/6.3.0/../../..\libmingwex.a(snprintf.o)
 .eh_frame      0x0048e7dc       0x30 c:/mingw/bin/../lib/gcc/mingw32/6.3.0/../../..\libmingwex.a(vfprintf.o)
 .eh_frame      0x0048e80c       0x30 c:/mingw/bin/../lib/gcc/mingw32/6.3.0/../../..\libmingwex.a(vprintf.o)
 .eh_frame      0x0048e83c       0x50 c:/mingw/bin/../lib/gcc/mingw32/6.3.0/../../..\libmingwex.a(vsnprintf.o)
 .eh_frame      0x0048e88c       0x38 c:/mingw/bin/../lib/gcc/mingw32/6.3.0/../../..\libmingwex.a(vsprintf.o)
 .eh_frame      0x0048e8c4      0x25c c:/mingw/bin/../lib/gcc/mingw32/6.3.0/../../..\libmingwex.a(glob.o)
 .eh_frame      0x0048eb20       0x58 c:/mingw/bin/../lib/gcc/mingw32/6.3.0/../../..\libmingwex.a(dirname.o)
 .eh_frame      0x0048eb78      0x1c4 c:/mingw/bin/../lib/gcc/mingw32/6.3.0/../../..\libmingwex.a(dirent.o)
 .eh_frame      0x0048ed3c      0x4e0 c:/mingw/bin/../lib/gcc/mingw32/6.3.0/../../..\libmingwex.a(pformat.o)
 .eh_frame      0x0048f21c      0x130 c:/mingw/bin/../lib/gcc/mingw32/6.3.0/../../..\libmingwex.a(mbrtowc.o)
 .eh_frame      0x0048f34c       0xf8 c:/mingw/bin/../lib/gcc/mingw32/6.3.0/../../..\libmingwex.a(wcrtomb.o)
 .eh_frame      0x0048f444       0xa0 c:/mingw/bin/../lib/gcc/mingw32/6.3.0/../../..\libmingwex.a(gdtoa.o)
 .eh_frame      0x0048f4e4       0x98 c:/mingw/bin/../lib/gcc/mingw32/6.3.0/../../..\libmingwex.a(gmisc.o)
 .eh_frame      0x0048f57c       0xc4 c:/mingw/bin/../lib/gcc/mingw32/6.3.0/../../..\libmingwex.a(dmisc.o)
 .eh_frame      0x0048f640      0x380 c:/mingw/bin/../lib/gcc/mingw32/6.3.0/../../..\libmingwex.a(misc.o)
 .eh_frame      0x0048f9c0       0x3c c:/mingw/bin/../lib/gcc/mingw32/6.3.0/crtend.o

.pdata
 *(.pdata*)

.bss            0x00490000      0xa74
                0x00490000                __bss_start__ = .
 *(.bss)
 .bss           0x00490000        0x8 c:/mingw/bin/../lib/gcc/mingw32/6.3.0/../../../crt2.o
                0x00490000                _argv
                0x00490004                _argc
 .bss           0x00490008       0x18 c:/mingw/bin/../lib/gcc/mingw32/6.3.0/crtbegin.o
 .bss           0x00490020        0x0 build/microcontroller_drv.o
 .bss           0x00490020        0x0 build/microcontroller_diag.o
 .bss           0x00490020        0x0 build/microcontroller_commands.o
 .bss           0x00490020        0x0 build/cpu_x86.o
 .bss           0x00490020        0x0 build/scheduler_config.o
 .bss           0x00490020        0x0 build/clock_config.o
 .bss           0x00490020        0x0 build/super_cycle_config.o
 .bss           0x00490020        0x0 build/storage_config.o
 .bss           0x00490020        0x0 build/writer_config.o
 .bss           0x00490020        0x0 build/akip1160_mcal.o
 .bss           0x00490020        0x0 build/akip1160_commands.o
 .bss           0x00490020        0x0 build/applications_commands.o
 .bss           0x00490020        0x0 build/mcal_diag.o
 .bss           0x00490020        0x0 build/clock_general.o
 .bss           0x00490020        0x0 build/clock_diag.o
 .bss           0x00490020        0x0 build/clock_commands.o
 .bss           0x00490020        0x0 build/hal_diag.o
 .bss           0x00490020        0x0 build/clock_mcal.o
 .bss           0x00490020        0x0 build/clock_custom_diag.o
 .bss           0x00490020        0x0 build/clock_custom_commands.o
 .bss           0x00490020        0x0 build/array.o
 .bss           0x00490020        0x0 build/array_diag.o
 .bss           0x00490020        0x0 build/array_commands.o
 .bss           0x00490020        0x0 build/fifo_index.o
 .bss           0x00490020        0x0 build/fifo_array.o
 .bss           0x00490020        0x0 build/fifo_char.o
 .bss           0x00490020        0x0 build/convert.o
 .bss           0x00490020        0x0 build/num_to_str.o
 .bss           0x00490020        0x0 build/convert_diag.o
 .bss           0x00490020        0x0 build/str_utils.o
 .bss           0x00490020        0x0 build/str_utils_ex.o
 .bss           0x00490020        0x0 build/log.o
 .bss           0x00490020        0x0 build/table_utils.o
 .bss           0x00490020        0x0 build/writer.o
 .bss           0x00490020        0x0 build/writer_stdout.o
 .bss           0x00490020        0x0 build/log_utils.o
 .bss           0x00490020        0x0 build/oprintf.o
 .bss           0x00490020        0x0 build/print_format.o
 .bss           0x00490020        0x0 build/log_commands.o
 .bss           0x00490020        0x0 build/interface_drv.o
 .bss           0x00490020        0x0 build/if_config.o
 .bss           0x00490020        0x0 build/serial_port.o
 .bss           0x00490020        0x0 build/serial_port_diag.o
 .bss           0x00490020        0x0 build/serial_port_commands.o
 .bss           0x00490020        0x0 build/protocol.o
 .bss           0x00490020        0x0 build/protocol_diag.o
 .bss           0x00490020        0x0 build/cli_drv.o
 .bss           0x00490020        0x0 build/cli_general_config.o
 .bss           0x00490020        0x0 build/cli_diag.o
 .bss           0x00490020        0x0 build/cli_native_commands.o
 .bss           0x00490020        0x0 build/csv.o
 .bss           0x00490020        0x0 build/string_reader.o
 .bss           0x00490020        0x0 build/string_reader_commands.o
 .bss           0x00490020        0x0 build/connectivity.o
 .bss           0x00490020        0x0 build/connectivity_commands.o
 .bss           0x00490020        0x0 build/connectivity_diag.o
 .bss           0x00490020        0x0 build/control_commands.o
 .bss           0x00490020        0x0 build/control_diag.o
 .bss           0x00490020        0x0 build/debugger.o
 .bss           0x00490020        0x0 build/debugger_commands.o
 .bss           0x00490020        0x0 build/super_cycle.o
 .bss           0x00490020        0x0 build/super_cycle_diag.o
 .bss           0x00490020        0x0 build/super_cycle_commands.o
 .bss           0x00490020        0x0 build/system.o
 .bss           0x00490020        0x0 build/scheduler_mcal.o
 .bss           0x00490020        0x0 build/scheduler_diag.o
 .bss           0x00490020        0x0 build/scheduler_commands.o
 .bss           0x00490020        0x0 build/win_utils.o
 .bss           0x00490020        0x0 build/pc_commands.o
 .bss           0x00490020        0x0 build/rational_num.o
 .bss           0x00490020        0x0 build/rational_num_diag.o
 .bss           0x00490020        0x0 build/limiter.o
 .bss           0x00490020        0x0 build/utils_math.o
 .bss           0x00490020        0x0 build/math_diag.o
 .bss           0x00490020        0x0 build/math_commands.o
 .bss           0x00490020        0x0 build/timer_calc.o
 .bss           0x00490020        0x0 build/timer_calc_diag.o
 .bss           0x00490020        0x0 build/timer_calc_commands.o
 .bss           0x00490020        0x0 build/computing.o
 .bss           0x00490020        0x0 build/computing_commands.o
 .bss           0x00490020        0x0 build/health_monitor.o
 .bss           0x00490020        0x0 build/health_monitor_commands.o
 .bss           0x00490020        0x0 build/time_mcal.o
 .bss           0x00490020        0x0 build/none_blocking_pause.o
 .bss           0x00490020        0x0 build/time_commands.o
 .bss           0x00490020        0x0 build/sensitivity.o
 .bss           0x00490020        0x0 build/sensitivity_diag.o
 .bss           0x00490020        0x0 build/sensitivity_commands.o
 .bss           0x00490020        0x0 build/file_api.o
 .bss           0x00490020        0x0 build/storage.o
 .bss           0x00490020        0x0 build/storage_commands.o
 .bss           0x00490020        0x0 build/shared_array.o
 .bss           0x00490020        0x0 build/common_functions.o
 .bss           0x00490020        0x0 build/common_commands.o
 .bss           0x00490020        0x0 build/bit_utils.o
 .bss           0x00490020        0x0 build/bit_diag.o
 .bss           0x00490020        0x0 build/bit_commands.o
 .bss           0x00490020        0x0 build/byte_utils.o
 .bss           0x00490020        0x0 build/word_utils.o
 .bss           0x00490020        0x0 build/dword_utils.o
 .bss           0x00490020        0x0 build/qword_utils.o
 .bss           0x00490020        0x0 build/byte_diag.o
 .bss           0x00490020        0x0 build/data_utils.o
 .bss           0x00490020        0x0 build/helper.o
 .bss           0x00490020        0x0 build/float_utils.o
 .bss           0x00490020        0x0 build/float_diag.o
 .bss           0x00490020        0x0 build/debug_info.o
 .bss           0x00490020        0x0 build/print_buffer.o
 .bss           0x00490020        0x0 build/test_config.o
 .bss           0x00490020        0x0 build/unit_test.o
 .bss           0x00490020        0x0 build/unit_test_commands.o
 .bss           0x00490020        0x0 build/test_array.o
 .bss           0x00490020        0x0 build/test_time_utils.o
 .bss           0x00490020        0x0 build/float_test.o
 .bss           0x00490020        0x0 build/test_math.o
 .bss           0x00490020        0x0 build/test_csv.o
 .bss           0x00490020        0x0 build/test_protocol.o
 .bss           0x00490020        0x0 build/test_fifo_array.o
 .bss           0x00490020        0x0 build/test_fifo_char.o
 .bss           0x00490020        0x0 build/test_fifo_indexer.o
 .bss           0x00490020        0x0 build/test_convert.o
 .bss           0x00490020        0x0 build/test_string_utils.o
 .bss           0x00490020        0x0 build/test_libc.o
 .bss           0x00490020        0x0 build/test_sw_list.o
 .bss           0x00490020        0x0 build/main.o
 .bss           0x00490020        0x0 build/akip1160_diag.o
 .bss           0x00490020        0x0 build/log_diag.o
 .bss           0x00490020        0x0 build/interfaces_diag.o
 .bss           0x00490020        0x0 build/csv_diag.o
 .bss           0x00490020        0x0 build/system_diag.o
 .bss           0x00490020        0x0 build/time_diag.o
 .bss           0x00490020        0x0 build/storage_diag.o
 .bss           0x00490020        0x0 build/common_diag.o
 .bss           0x00490020        0x0 build/unit_test_diag.o
 .bss           0x00490020        0x0 build/board_config.o
 .bss           0x00490020        0x0 build/board_monitor.o
 .bss           0x00490020        0x0 build/cli_config.o
 .bss           0x00490020        0x0 build/mem_config.o
 .bss           0x00490020        0x0 build/log_config.o
 .bss           0x00490020        0x0 build/string_reader_config.o
 .bss           0x00490020        0x0 build/serial_port_config.o
 .bss           0x00490020        0x0 build/time_config.o
 .bss           0x00490020        0x0 build/akip1160_config.o
 .bss           0x00490020        0x0 build/third_party_main.o
 .bss           0x00490020        0x0 c:/mingw/bin/../lib/gcc/mingw32/6.3.0/../../..\libmingw32.a(CRTglob.o)
 .bss           0x00490020        0x0 c:/mingw/bin/../lib/gcc/mingw32/6.3.0/../../..\libmingw32.a(setargv.o)
 .bss           0x00490020        0x4 c:/mingw/bin/../lib/gcc/mingw32/6.3.0/../../..\libmingw32.a(CRTfmode.o)
                0x00490020                _CRT_fmode
 .bss           0x00490024        0x4 c:/mingw/bin/../lib/gcc/mingw32/6.3.0/../../..\libmingw32.a(cpu_features.o)
                0x00490024                __cpu_features
 .bss           0x00490028        0x0 c:/mingw/bin/../lib/gcc/mingw32/6.3.0/../../..\libmingw32.a(CRT_fp10.o)
 .bss           0x00490028        0x0 c:/mingw/bin/../lib/gcc/mingw32/6.3.0/../../..\libmingw32.a(txtmode.o)
 .bss           0x00490028        0x4 c:/mingw/bin/../lib/gcc/mingw32/6.3.0/../../..\libmingw32.a(gccmain.o)
 .bss           0x0049002c       0x10 c:/mingw/bin/../lib/gcc/mingw32/6.3.0/../../..\libmingw32.a(tlssup.o)
                0x0049002c                mingw_initltssuo_force
                0x00490030                mingw_initltsdyn_force
                0x00490034                mingw_initltsdrot_force
                0x00490038                _tls_index
 .bss           0x0049003c       0x20 c:/mingw/bin/../lib/gcc/mingw32/6.3.0/../../..\libmingw32.a(tlsthrd.o)
 .bss           0x0049005c        0x4 c:/mingw/bin/../lib/gcc/mingw32/6.3.0/../../..\libmingw32.a(pseudo-reloc.o)
 .bss           0x00490060        0x4 c:/mingw/bin/../lib/gcc/mingw32/6.3.0/../../..\libmingw32.a(pseudo-reloc-list.o)
 .bss           0x00490064        0x4 c:/mingw/bin/../lib/gcc/mingw32/6.3.0/../../..\libmingw32.a(crtst.o)
                0x00490064                _CRT_MT
 .bss           0x00490068        0x0 c:/mingw/bin/../lib/gcc/mingw32/6.3.0\libgcc.a(_chkstk_ms.o)
 .bss           0x00490068        0x0 c:/mingw/bin/../lib/gcc/mingw32/6.3.0\libgcc.a(_ctors.o)
 .bss           0x00490068        0x0 c:/mingw/bin/../lib/gcc/mingw32/6.3.0\libgcc.a(_divdi3.o)
 .bss           0x00490068        0x0 c:/mingw/bin/../lib/gcc/mingw32/6.3.0\libgcc.a(_udivdi3.o)
 .bss           0x00490068        0x0 c:/mingw/bin/../lib/gcc/mingw32/6.3.0\libgcc.a(_umoddi3.o)
 .bss           0x00490068        0x0 c:/mingw/bin/../lib/gcc/mingw32/6.3.0/../../..\libmoldname.a(dagwbs00047.o)
 .bss           0x00490068        0x0 c:/mingw/bin/../lib/gcc/mingw32/6.3.0/../../..\libmoldname.a(dagwbh.o)
 .bss           0x00490068        0x0 c:/mingw/bin/../lib/gcc/mingw32/6.3.0/../../..\libmoldname.a(dagwbt.o)
 .bss           0x00490068        0x0 c:/mingw/bin/../lib/gcc/mingw32/6.3.0/../../..\libmingwex.a(fesetenv.o)
 .bss           0x00490068        0x0 c:/mingw/bin/../lib/gcc/mingw32/6.3.0/../../..\libmingwex.a(cosf.o)
 .bss           0x00490068        0x0 c:/mingw/bin/../lib/gcc/mingw32/6.3.0/../../..\libmingwex.a(sinf.o)
 .bss           0x00490068        0x0 c:/mingw/bin/../lib/gcc/mingw32/6.3.0/../../..\libmingwex.a(ceilf.o)
 .bss           0x00490068        0x0 c:/mingw/bin/../lib/gcc/mingw32/6.3.0/../../..\libmingwex.a(fmax.o)
 .bss           0x00490068        0x0 c:/mingw/bin/../lib/gcc/mingw32/6.3.0/../../..\libmingwex.a(fmaxf.o)
 .bss           0x00490068        0x0 c:/mingw/bin/../lib/gcc/mingw32/6.3.0/../../..\libmingwex.a(fmodf.o)
 .bss           0x00490068        0x0 c:/mingw/bin/../lib/gcc/mingw32/6.3.0/../../..\libmingwex.a(fpclassifyf.o)
 .bss           0x00490068        0x0 c:/mingw/bin/../lib/gcc/mingw32/6.3.0/../../..\libmingwex.a(log10f.o)
 .bss           0x00490068        0x0 c:/mingw/bin/../lib/gcc/mingw32/6.3.0/../../..\libmingwex.a(logf.o)
 .bss           0x00490068        0x0 c:/mingw/bin/../lib/gcc/mingw32/6.3.0/../../..\libmingwex.a(powf.o)
 .bss           0x00490068        0x0 c:/mingw/bin/../lib/gcc/mingw32/6.3.0/../../..\libmingwex.a(rintf.o)
 .bss           0x00490068        0x0 c:/mingw/bin/../lib/gcc/mingw32/6.3.0/../../..\libmingwex.a(x87cvtf.o)
 .bss           0x00490068        0x0 c:/mingw/bin/../lib/gcc/mingw32/6.3.0/../../..\libmingwex.a(x87log.o)
 .bss           0x00490068        0x0 c:/mingw/bin/../lib/gcc/mingw32/6.3.0/../../..\libmingwex.a(x87pow.o)
 .bss           0x00490068        0x0 c:/mingw/bin/../lib/gcc/mingw32/6.3.0/../../..\libmingwex.a(snprintf.o)
 .bss           0x00490068        0x0 c:/mingw/bin/../lib/gcc/mingw32/6.3.0/../../..\libmingwex.a(vfprintf.o)
 .bss           0x00490068        0x0 c:/mingw/bin/../lib/gcc/mingw32/6.3.0/../../..\libmingwex.a(vprintf.o)
 .bss           0x00490068        0x0 c:/mingw/bin/../lib/gcc/mingw32/6.3.0/../../..\libmingwex.a(vsnprintf.o)
 .bss           0x00490068        0x0 c:/mingw/bin/../lib/gcc/mingw32/6.3.0/../../..\libmingwex.a(vsprintf.o)
 .bss           0x00490068        0x0 c:/mingw/bin/../lib/gcc/mingw32/6.3.0/../../..\libmingwex.a(glob.o)
 .bss           0x00490068        0x4 c:/mingw/bin/../lib/gcc/mingw32/6.3.0/../../..\libmingwex.a(dirname.o)
 .bss           0x0049006c        0x0 c:/mingw/bin/../lib/gcc/mingw32/6.3.0/../../..\libmingwex.a(dirent.o)
 .bss           0x0049006c        0x0 c:/mingw/bin/../lib/gcc/mingw32/6.3.0/../../..\libmingwex.a(strcasecmp.jmpstub.o)
 .bss           0x0049006c        0x0 c:/mingw/bin/../lib/gcc/mingw32/6.3.0/../../..\libmingwex.a(pformat.o)
 .bss           0x0049006c        0x4 c:/mingw/bin/../lib/gcc/mingw32/6.3.0/../../..\libmingwex.a(varofmt.o)
                0x0049006c                __mingw_output_format_flags
 .bss           0x00490070        0xc c:/mingw/bin/../lib/gcc/mingw32/6.3.0/../../..\libmingwex.a(mbrtowc.o)
 .bss           0x0049007c        0x0 c:/mingw/bin/../lib/gcc/mingw32/6.3.0/../../..\libmingwex.a(wcrtomb.o)
 .bss           0x0049007c        0x0 c:/mingw/bin/../lib/gcc/mingw32/6.3.0/../../..\libmingwex.a(gdtoa.o)
 .bss           0x0049007c        0x0 c:/mingw/bin/../lib/gcc/mingw32/6.3.0/../../..\libmingwex.a(gmisc.o)
 .bss           0x0049007c        0x0 c:/mingw/bin/../lib/gcc/mingw32/6.3.0/../../..\libmingwex.a(dmisc.o)
 *fill*         0x0049007c        0x4 
 .bss           0x00490080      0x9a0 c:/mingw/bin/../lib/gcc/mingw32/6.3.0/../../..\libmingwex.a(misc.o)
 .bss           0x00490a20        0x0 c:/mingw/bin/../lib/gcc/mingw32/6.3.0/../../..\libmsvcrt.a(djpvbs01325.o)
 .bss           0x00490a20        0x0 c:/mingw/bin/../lib/gcc/mingw32/6.3.0/../../..\libmsvcrt.a(djpvbs01308.o)
 .bss           0x00490a20        0x0 c:/mingw/bin/../lib/gcc/mingw32/6.3.0/../../..\libmsvcrt.a(djpvbs01284.o)
 .bss           0x00490a20        0x0 c:/mingw/bin/../lib/gcc/mingw32/6.3.0/../../..\libmsvcrt.a(djpvbs01278.o)
 .bss           0x00490a20        0x0 c:/mingw/bin/../lib/gcc/mingw32/6.3.0/../../..\libmsvcrt.a(djpvbs01277.o)
 .bss           0x00490a20        0x0 c:/mingw/bin/../lib/gcc/mingw32/6.3.0/../../..\libmsvcrt.a(djpvbs01272.o)
 .bss           0x00490a20        0x0 c:/mingw/bin/../lib/gcc/mingw32/6.3.0/../../..\libmsvcrt.a(djpvbs01269.o)
 .bss           0x00490a20        0x0 c:/mingw/bin/../lib/gcc/mingw32/6.3.0/../../..\libmsvcrt.a(djpvbs01258.o)
 .bss           0x00490a20        0x0 c:/mingw/bin/../lib/gcc/mingw32/6.3.0/../../..\libmsvcrt.a(djpvbs01257.o)
 .bss           0x00490a20        0x0 c:/mingw/bin/../lib/gcc/mingw32/6.3.0/../../..\libmsvcrt.a(djpvbs01253.o)
 .bss           0x00490a20        0x0 c:/mingw/bin/../lib/gcc/mingw32/6.3.0/../../..\libmsvcrt.a(djpvbs01252.o)
 .bss           0x00490a20        0x0 c:/mingw/bin/../lib/gcc/mingw32/6.3.0/../../..\libmsvcrt.a(djpvbs01249.o)
 .bss           0x00490a20        0x0 c:/mingw/bin/../lib/gcc/mingw32/6.3.0/../../..\libmsvcrt.a(djpvbs01245.o)
 .bss           0x00490a20        0x0 c:/mingw/bin/../lib/gcc/mingw32/6.3.0/../../..\libmsvcrt.a(djpvbs01243.o)
 .bss           0x00490a20        0x0 c:/mingw/bin/../lib/gcc/mingw32/6.3.0/../../..\libmsvcrt.a(djpvbs01242.o)
 .bss           0x00490a20        0x0 c:/mingw/bin/../lib/gcc/mingw32/6.3.0/../../..\libmsvcrt.a(djpvbs01241.o)
 .bss           0x00490a20        0x0 c:/mingw/bin/../lib/gcc/mingw32/6.3.0/../../..\libmsvcrt.a(djpvbs01240.o)
 .bss           0x00490a20        0x0 c:/mingw/bin/../lib/gcc/mingw32/6.3.0/../../..\libmsvcrt.a(djpvbs01236.o)
 .bss           0x00490a20        0x0 c:/mingw/bin/../lib/gcc/mingw32/6.3.0/../../..\libmsvcrt.a(djpvbs01235.o)
 .bss           0x00490a20        0x0 c:/mingw/bin/../lib/gcc/mingw32/6.3.0/../../..\libmsvcrt.a(djpvbs01230.o)
 .bss           0x00490a20        0x0 c:/mingw/bin/../lib/gcc/mingw32/6.3.0/../../..\libmsvcrt.a(djpvbs01229.o)
 .bss           0x00490a20        0x0 c:/mingw/bin/../lib/gcc/mingw32/6.3.0/../../..\libmsvcrt.a(djpvbs01227.o)
 .bss           0x00490a20        0x0 c:/mingw/bin/../lib/gcc/mingw32/6.3.0/../../..\libmsvcrt.a(djpvbs01220.o)
 .bss           0x00490a20        0x0 c:/mingw/bin/../lib/gcc/mingw32/6.3.0/../../..\libmsvcrt.a(djpvbs01218.o)
 .bss           0x00490a20        0x0 c:/mingw/bin/../lib/gcc/mingw32/6.3.0/../../..\libmsvcrt.a(djpvbs01215.o)
 .bss           0x00490a20        0x0 c:/mingw/bin/../lib/gcc/mingw32/6.3.0/../../..\libmsvcrt.a(djpvbs01212.o)
 .bss           0x00490a20        0x0 c:/mingw/bin/../lib/gcc/mingw32/6.3.0/../../..\libmsvcrt.a(djpvbs01211.o)
 .bss           0x00490a20        0x0 c:/mingw/bin/../lib/gcc/mingw32/6.3.0/../../..\libmsvcrt.a(djpvbs01207.o)
 .bss           0x00490a20        0x0 c:/mingw/bin/../lib/gcc/mingw32/6.3.0/../../..\libmsvcrt.a(djpvbs01204.o)
 .bss           0x00490a20        0x0 c:/mingw/bin/../lib/gcc/mingw32/6.3.0/../../..\libmsvcrt.a(djpvbs01203.o)
 .bss           0x00490a20        0x0 c:/mingw/bin/../lib/gcc/mingw32/6.3.0/../../..\libmsvcrt.a(djpvbs01201.o)
 .bss           0x00490a20        0x0 c:/mingw/bin/../lib/gcc/mingw32/6.3.0/../../..\libmsvcrt.a(djpvbs01199.o)
 .bss           0x00490a20        0x0 c:/mingw/bin/../lib/gcc/mingw32/6.3.0/../../..\libmsvcrt.a(djpvbs01194.o)
 .bss           0x00490a20        0x0 c:/mingw/bin/../lib/gcc/mingw32/6.3.0/../../..\libmsvcrt.a(djpvbs01187.o)
 .bss           0x00490a20        0x0 c:/mingw/bin/../lib/gcc/mingw32/6.3.0/../../..\libmsvcrt.a(djpvbs01185.o)
 .bss           0x00490a20        0x0 c:/mingw/bin/../lib/gcc/mingw32/6.3.0/../../..\libmsvcrt.a(djpvbs01184.o)
 .bss           0x00490a20        0x0 c:/mingw/bin/../lib/gcc/mingw32/6.3.0/../../..\libmsvcrt.a(djpvbs01183.o)
 .bss           0x00490a20        0x0 c:/mingw/bin/../lib/gcc/mingw32/6.3.0/../../..\libmsvcrt.a(djpvbs01182.o)
 .bss           0x00490a20        0x0 c:/mingw/bin/../lib/gcc/mingw32/6.3.0/../../..\libmsvcrt.a(djpvbs01163.o)
 .bss           0x00490a20        0x0 c:/mingw/bin/../lib/gcc/mingw32/6.3.0/../../..\libmsvcrt.a(djpvbs01161.o)
 .bss           0x00490a20        0x0 c:/mingw/bin/../lib/gcc/mingw32/6.3.0/../../..\libmsvcrt.a(djpvbs01147.o)
 .bss           0x00490a20        0x0 c:/mingw/bin/../lib/gcc/mingw32/6.3.0/../../..\libmsvcrt.a(djpvbs01142.o)
 .bss           0x00490a20        0x0 c:/mingw/bin/../lib/gcc/mingw32/6.3.0/../../..\libmsvcrt.a(djpvbs01131.o)
 .bss           0x00490a20        0x0 c:/mingw/bin/../lib/gcc/mingw32/6.3.0/../../..\libmsvcrt.a(djpvbs01126.o)
 .bss           0x00490a20        0x0 c:/mingw/bin/../lib/gcc/mingw32/6.3.0/../../..\libmsvcrt.a(djpvbs01122.o)
 .bss           0x00490a20        0x0 c:/mingw/bin/../lib/gcc/mingw32/6.3.0/../../..\libmsvcrt.a(djpvbs01111.o)
 .bss           0x00490a20        0x0 c:/mingw/bin/../lib/gcc/mingw32/6.3.0/../../..\libmsvcrt.a(djpvbs01108.o)
 .bss           0x00490a20        0x0 c:/mingw/bin/../lib/gcc/mingw32/6.3.0/../../..\libmsvcrt.a(djpvbs01106.o)
 .bss           0x00490a20        0x0 c:/mingw/bin/../lib/gcc/mingw32/6.3.0/../../..\libmsvcrt.a(djpvbs01102.o)
 .bss           0x00490a20        0x0 c:/mingw/bin/../lib/gcc/mingw32/6.3.0/../../..\libmsvcrt.a(djpvbs01099.o)
 .bss           0x00490a20        0x0 c:/mingw/bin/../lib/gcc/mingw32/6.3.0/../../..\libmsvcrt.a(djpvbs01098.o)
 .bss           0x00490a20        0x0 c:/mingw/bin/../lib/gcc/mingw32/6.3.0/../../..\libmsvcrt.a(djpvbs01093.o)
 .bss           0x00490a20        0x0 c:/mingw/bin/../lib/gcc/mingw32/6.3.0/../../..\libmsvcrt.a(djpvbs01091.o)
 .bss           0x00490a20        0x0 c:/mingw/bin/../lib/gcc/mingw32/6.3.0/../../..\libmsvcrt.a(djpvbs01083.o)
 .bss           0x00490a20        0x0 c:/mingw/bin/../lib/gcc/mingw32/6.3.0/../../..\libmsvcrt.a(djpvbs00803.o)
 .bss           0x00490a20        0x0 c:/mingw/bin/../lib/gcc/mingw32/6.3.0/../../..\libmsvcrt.a(djpvbs00753.o)
 .bss           0x00490a20        0x0 c:/mingw/bin/../lib/gcc/mingw32/6.3.0/../../..\libmsvcrt.a(djpvbs00698.o)
 .bss           0x00490a20        0x0 c:/mingw/bin/../lib/gcc/mingw32/6.3.0/../../..\libmsvcrt.a(djpvbs00689.o)
 .bss           0x00490a20        0x0 c:/mingw/bin/../lib/gcc/mingw32/6.3.0/../../..\libmsvcrt.a(djpvbs00422.o)
 .bss           0x00490a20        0x0 c:/mingw/bin/../lib/gcc/mingw32/6.3.0/../../..\libmsvcrt.a(djpvbs00417.o)
 .bss           0x00490a20        0x0 c:/mingw/bin/../lib/gcc/mingw32/6.3.0/../../..\libmsvcrt.a(djpvbs00379.o)
 .bss           0x00490a20        0x0 c:/mingw/bin/../lib/gcc/mingw32/6.3.0/../../..\libmsvcrt.a(djpvbs00350.o)
 .bss           0x00490a20        0x0 c:/mingw/bin/../lib/gcc/mingw32/6.3.0/../../..\libmsvcrt.a(djpvbs00324.o)
 .bss           0x00490a20        0x0 c:/mingw/bin/../lib/gcc/mingw32/6.3.0/../../..\libmsvcrt.a(djpvbs00285.o)
 .bss           0x00490a20        0x0 c:/mingw/bin/../lib/gcc/mingw32/6.3.0/../../..\libmsvcrt.a(djpvbs00219.o)
 .bss           0x00490a20        0x0 c:/mingw/bin/../lib/gcc/mingw32/6.3.0/../../..\libmsvcrt.a(djpvbs00153.o)
 .bss           0x00490a20        0x0 c:/mingw/bin/../lib/gcc/mingw32/6.3.0/../../..\libmsvcrt.a(djpvbs00133.o)
 .bss           0x00490a20        0x0 c:/mingw/bin/../lib/gcc/mingw32/6.3.0/../../..\libmsvcrt.a(djpvbs00131.o)
 .bss           0x00490a20        0x0 c:/mingw/bin/../lib/gcc/mingw32/6.3.0/../../..\libmsvcrt.a(djpvbs00119.o)
 .bss           0x00490a20        0x0 c:/mingw/bin/../lib/gcc/mingw32/6.3.0/../../..\libmsvcrt.a(djpvbs00088.o)
 .bss           0x00490a20        0x0 c:/mingw/bin/../lib/gcc/mingw32/6.3.0/../../..\libmsvcrt.a(djpvbh.o)
 .bss           0x00490a20        0x0 c:/mingw/bin/../lib/gcc/mingw32/6.3.0/../../..\libmsvcrt.a(djpvbt.o)
 .bss           0x00490a20        0x0 c:/mingw/bin/../lib/gcc/mingw32/6.3.0/../../..\libkernel32.a(dujcs01267.o)
 .bss           0x00490a20        0x0 c:/mingw/bin/../lib/gcc/mingw32/6.3.0/../../..\libkernel32.a(dujcs01247.o)
 .bss           0x00490a20        0x0 c:/mingw/bin/../lib/gcc/mingw32/6.3.0/../../..\libkernel32.a(dujcs01215.o)
 .bss           0x00490a20        0x0 c:/mingw/bin/../lib/gcc/mingw32/6.3.0/../../..\libkernel32.a(dujcs01213.o)
 .bss           0x00490a20        0x0 c:/mingw/bin/../lib/gcc/mingw32/6.3.0/../../..\libkernel32.a(dujcs01173.o)
 .bss           0x00490a20        0x0 c:/mingw/bin/../lib/gcc/mingw32/6.3.0/../../..\libkernel32.a(dujcs01152.o)
 .bss           0x00490a20        0x0 c:/mingw/bin/../lib/gcc/mingw32/6.3.0/../../..\libkernel32.a(dujcs01140.o)
 .bss           0x00490a20        0x0 c:/mingw/bin/../lib/gcc/mingw32/6.3.0/../../..\libkernel32.a(dujcs01037.o)
 .bss           0x00490a20        0x0 c:/mingw/bin/../lib/gcc/mingw32/6.3.0/../../..\libkernel32.a(dujcs01014.o)
 .bss           0x00490a20        0x0 c:/mingw/bin/../lib/gcc/mingw32/6.3.0/../../..\libkernel32.a(dujcs01013.o)
 .bss           0x00490a20        0x0 c:/mingw/bin/../lib/gcc/mingw32/6.3.0/../../..\libkernel32.a(dujcs00947.o)
 .bss           0x00490a20        0x0 c:/mingw/bin/../lib/gcc/mingw32/6.3.0/../../..\libkernel32.a(dujcs00860.o)
 .bss           0x00490a20        0x0 c:/mingw/bin/../lib/gcc/mingw32/6.3.0/../../..\libkernel32.a(dujcs00817.o)
 .bss           0x00490a20        0x0 c:/mingw/bin/../lib/gcc/mingw32/6.3.0/../../..\libkernel32.a(dujcs00814.o)
 .bss           0x00490a20        0x0 c:/mingw/bin/../lib/gcc/mingw32/6.3.0/../../..\libkernel32.a(dujcs00763.o)
 .bss           0x00490a20        0x0 c:/mingw/bin/../lib/gcc/mingw32/6.3.0/../../..\libkernel32.a(dujcs00744.o)
 .bss           0x00490a20        0x0 c:/mingw/bin/../lib/gcc/mingw32/6.3.0/../../..\libkernel32.a(dujcs00734.o)
 .bss           0x00490a20        0x0 c:/mingw/bin/../lib/gcc/mingw32/6.3.0/../../..\libkernel32.a(dujcs00608.o)
 .bss           0x00490a20        0x0 c:/mingw/bin/../lib/gcc/mingw32/6.3.0/../../..\libkernel32.a(dujcs00577.o)
 .bss           0x00490a20        0x0 c:/mingw/bin/../lib/gcc/mingw32/6.3.0/../../..\libkernel32.a(dujcs00529.o)
 .bss           0x00490a20        0x0 c:/mingw/bin/../lib/gcc/mingw32/6.3.0/../../..\libkernel32.a(dujcs00510.o)
 .bss           0x00490a20        0x0 c:/mingw/bin/../lib/gcc/mingw32/6.3.0/../../..\libkernel32.a(dujcs00426.o)
 .bss           0x00490a20        0x0 c:/mingw/bin/../lib/gcc/mingw32/6.3.0/../../..\libkernel32.a(dujcs00388.o)
 .bss           0x00490a20        0x0 c:/mingw/bin/../lib/gcc/mingw32/6.3.0/../../..\libkernel32.a(dujcs00386.o)
 .bss           0x00490a20        0x0 c:/mingw/bin/../lib/gcc/mingw32/6.3.0/../../..\libkernel32.a(dujcs00352.o)
 .bss           0x00490a20        0x0 c:/mingw/bin/../lib/gcc/mingw32/6.3.0/../../..\libkernel32.a(dujcs00321.o)
 .bss           0x00490a20        0x0 c:/mingw/bin/../lib/gcc/mingw32/6.3.0/../../..\libkernel32.a(dujcs00304.o)
 .bss           0x00490a20        0x0 c:/mingw/bin/../lib/gcc/mingw32/6.3.0/../../..\libkernel32.a(dujcs00300.o)
 .bss           0x00490a20        0x0 c:/mingw/bin/../lib/gcc/mingw32/6.3.0/../../..\libkernel32.a(dujcs00279.o)
 .bss           0x00490a20        0x0 c:/mingw/bin/../lib/gcc/mingw32/6.3.0/../../..\libkernel32.a(dujcs00236.o)
 .bss           0x00490a20        0x0 c:/mingw/bin/../lib/gcc/mingw32/6.3.0/../../..\libkernel32.a(dujcs00207.o)
 .bss           0x00490a20        0x0 c:/mingw/bin/../lib/gcc/mingw32/6.3.0/../../..\libkernel32.a(dujcs00135.o)
 .bss           0x00490a20        0x0 c:/mingw/bin/../lib/gcc/mingw32/6.3.0/../../..\libkernel32.a(dujcs00082.o)
 .bss           0x00490a20        0x0 c:/mingw/bin/../lib/gcc/mingw32/6.3.0/../../..\libkernel32.a(dujch.o)
 .bss           0x00490a20        0x0 c:/mingw/bin/../lib/gcc/mingw32/6.3.0/../../..\libkernel32.a(dujct.o)
 .bss           0x00490a20        0x0 c:/mingw/bin/../lib/gcc/mingw32/6.3.0/../../..\libmoldname.a(dagwbs00082.o)
 .bss           0x00490a20        0x0 c:/mingw/bin/../lib/gcc/mingw32/6.3.0/../../..\libmoldname.a(dagwbs00080.o)
 .bss           0x00490a20        0x0 c:/mingw/bin/../lib/gcc/mingw32/6.3.0/crtend.o
 *(COMMON)
 COMMON         0x00490a20        0x4 c:/mingw/bin/../lib/gcc/mingw32/6.3.0/crtbegin.o
                0x00490a20                hmod_libgcc
 COMMON         0x00490a24       0x14 build/clock_mcal.o
                0x00490a24                start_time_b
                0x00490a30                g_up_time_ms
                0x00490a34                start_time_ms
 *fill*         0x00490a38        0x8 
 COMMON         0x00490a40       0x29 build/print_buffer.o
                0x00490a40                last_cmd_result_str
 *fill*         0x00490a69        0x3 
 COMMON         0x00490a6c        0x1 build/unit_test.o
                0x00490a6c                test_failed
 *fill*         0x00490a6d        0x3 
 COMMON         0x00490a70        0x3 build/test_sw_list.o
                0x00490a70                xyz
 *fill*         0x00490a73        0x1 
 COMMON         0x00490a74        0x0 c:/mingw/bin/../lib/gcc/mingw32/6.3.0\libgcc.a(_ctors.o)
                0x00490a74                __bss_end__ = .

.edata
 *(.edata)

/DISCARD/
 *(.debug$S)
 *(.debug$T)
 *(.debug$F)
 *(.drectve)
 *(.note.GNU-stack)
 *(.gnu.lto_*)

.idata          0x00491000      0xc00
 SORT(*)(.idata$2)
 .idata$2       0x00491000       0x14 c:/mingw/bin/../lib/gcc/mingw32/6.3.0/../../..\libkernel32.a(dujch.o)
                0x00491000                _head_libkernel32_a
 .idata$2       0x00491014       0x14 c:/mingw/bin/../lib/gcc/mingw32/6.3.0/../../..\libmoldname.a(dagwbh.o)
                0x00491014                _head_libmoldname_a
 .idata$2       0x00491028       0x14 c:/mingw/bin/../lib/gcc/mingw32/6.3.0/../../..\libmsvcrt.a(djpvbh.o)
                0x00491028                _head_libmsvcrt_a
 SORT(*)(.idata$3)
                0x0049103c        0x4 LONG 0x0
                0x00491040        0x4 LONG 0x0
                0x00491044        0x4 LONG 0x0
                0x00491048        0x4 LONG 0x0
                0x0049104c        0x4 LONG 0x0
 SORT(*)(.idata$4)
 .idata$4       0x00491050        0x0 c:/mingw/bin/../lib/gcc/mingw32/6.3.0/../../..\libkernel32.a(dujch.o)
 .idata$4       0x00491050        0x4 c:/mingw/bin/../lib/gcc/mingw32/6.3.0/../../..\libkernel32.a(dujcs00082.o)
 .idata$4       0x00491054        0x4 c:/mingw/bin/../lib/gcc/mingw32/6.3.0/../../..\libkernel32.a(dujcs00135.o)
 .idata$4       0x00491058        0x4 c:/mingw/bin/../lib/gcc/mingw32/6.3.0/../../..\libkernel32.a(dujcs00207.o)
 .idata$4       0x0049105c        0x4 c:/mingw/bin/../lib/gcc/mingw32/6.3.0/../../..\libkernel32.a(dujcs00236.o)
 .idata$4       0x00491060        0x4 c:/mingw/bin/../lib/gcc/mingw32/6.3.0/../../..\libkernel32.a(dujcs00279.o)
 .idata$4       0x00491064        0x4 c:/mingw/bin/../lib/gcc/mingw32/6.3.0/../../..\libkernel32.a(dujcs00300.o)
 .idata$4       0x00491068        0x4 c:/mingw/bin/../lib/gcc/mingw32/6.3.0/../../..\libkernel32.a(dujcs00304.o)
 .idata$4       0x0049106c        0x4 c:/mingw/bin/../lib/gcc/mingw32/6.3.0/../../..\libkernel32.a(dujcs00321.o)
 .idata$4       0x00491070        0x4 c:/mingw/bin/../lib/gcc/mingw32/6.3.0/../../..\libkernel32.a(dujcs00352.o)
 .idata$4       0x00491074        0x4 c:/mingw/bin/../lib/gcc/mingw32/6.3.0/../../..\libkernel32.a(dujcs00386.o)
 .idata$4       0x00491078        0x4 c:/mingw/bin/../lib/gcc/mingw32/6.3.0/../../..\libkernel32.a(dujcs00388.o)
 .idata$4       0x0049107c        0x4 c:/mingw/bin/../lib/gcc/mingw32/6.3.0/../../..\libkernel32.a(dujcs00426.o)
 .idata$4       0x00491080        0x4 c:/mingw/bin/../lib/gcc/mingw32/6.3.0/../../..\libkernel32.a(dujcs00510.o)
 .idata$4       0x00491084        0x4 c:/mingw/bin/../lib/gcc/mingw32/6.3.0/../../..\libkernel32.a(dujcs00529.o)
 .idata$4       0x00491088        0x4 c:/mingw/bin/../lib/gcc/mingw32/6.3.0/../../..\libkernel32.a(dujcs00577.o)
 .idata$4       0x0049108c        0x4 c:/mingw/bin/../lib/gcc/mingw32/6.3.0/../../..\libkernel32.a(dujcs00608.o)
 .idata$4       0x00491090        0x4 c:/mingw/bin/../lib/gcc/mingw32/6.3.0/../../..\libkernel32.a(dujcs00734.o)
 .idata$4       0x00491094        0x4 c:/mingw/bin/../lib/gcc/mingw32/6.3.0/../../..\libkernel32.a(dujcs00744.o)
 .idata$4       0x00491098        0x4 c:/mingw/bin/../lib/gcc/mingw32/6.3.0/../../..\libkernel32.a(dujcs00763.o)
 .idata$4       0x0049109c        0x4 c:/mingw/bin/../lib/gcc/mingw32/6.3.0/../../..\libkernel32.a(dujcs00814.o)
 .idata$4       0x004910a0        0x4 c:/mingw/bin/../lib/gcc/mingw32/6.3.0/../../..\libkernel32.a(dujcs00817.o)
 .idata$4       0x004910a4        0x4 c:/mingw/bin/../lib/gcc/mingw32/6.3.0/../../..\libkernel32.a(dujcs00860.o)
 .idata$4       0x004910a8        0x4 c:/mingw/bin/../lib/gcc/mingw32/6.3.0/../../..\libkernel32.a(dujcs00947.o)
 .idata$4       0x004910ac        0x4 c:/mingw/bin/../lib/gcc/mingw32/6.3.0/../../..\libkernel32.a(dujcs01013.o)
 .idata$4       0x004910b0        0x4 c:/mingw/bin/../lib/gcc/mingw32/6.3.0/../../..\libkernel32.a(dujcs01014.o)
 .idata$4       0x004910b4        0x4 c:/mingw/bin/../lib/gcc/mingw32/6.3.0/../../..\libkernel32.a(dujcs01037.o)
 .idata$4       0x004910b8        0x4 c:/mingw/bin/../lib/gcc/mingw32/6.3.0/../../..\libkernel32.a(dujcs01140.o)
 .idata$4       0x004910bc        0x4 c:/mingw/bin/../lib/gcc/mingw32/6.3.0/../../..\libkernel32.a(dujcs01152.o)
 .idata$4       0x004910c0        0x4 c:/mingw/bin/../lib/gcc/mingw32/6.3.0/../../..\libkernel32.a(dujcs01173.o)
 .idata$4       0x004910c4        0x4 c:/mingw/bin/../lib/gcc/mingw32/6.3.0/../../..\libkernel32.a(dujcs01213.o)
 .idata$4       0x004910c8        0x4 c:/mingw/bin/../lib/gcc/mingw32/6.3.0/../../..\libkernel32.a(dujcs01215.o)
 .idata$4       0x004910cc        0x4 c:/mingw/bin/../lib/gcc/mingw32/6.3.0/../../..\libkernel32.a(dujcs01247.o)
 .idata$4       0x004910d0        0x4 c:/mingw/bin/../lib/gcc/mingw32/6.3.0/../../..\libkernel32.a(dujcs01267.o)
 .idata$4       0x004910d4        0x4 c:/mingw/bin/../lib/gcc/mingw32/6.3.0/../../..\libkernel32.a(dujct.o)
 .idata$4       0x004910d8        0x0 c:/mingw/bin/../lib/gcc/mingw32/6.3.0/../../..\libmoldname.a(dagwbh.o)
 .idata$4       0x004910d8        0x4 c:/mingw/bin/../lib/gcc/mingw32/6.3.0/../../..\libmoldname.a(dagwbs00047.o)
 .idata$4       0x004910dc        0x4 c:/mingw/bin/../lib/gcc/mingw32/6.3.0/../../..\libmoldname.a(dagwbs00080.o)
 .idata$4       0x004910e0        0x4 c:/mingw/bin/../lib/gcc/mingw32/6.3.0/../../..\libmoldname.a(dagwbs00082.o)
 .idata$4       0x004910e4        0x4 c:/mingw/bin/../lib/gcc/mingw32/6.3.0/../../..\libmoldname.a(dagwbt.o)
 .idata$4       0x004910e8        0x0 c:/mingw/bin/../lib/gcc/mingw32/6.3.0/../../..\libmsvcrt.a(djpvbh.o)
 .idata$4       0x004910e8        0x4 c:/mingw/bin/../lib/gcc/mingw32/6.3.0/../../..\libmsvcrt.a(djpvbs00088.o)
 .idata$4       0x004910ec        0x4 c:/mingw/bin/../lib/gcc/mingw32/6.3.0/../../..\libmsvcrt.a(djpvbs00119.o)
 .idata$4       0x004910f0        0x4 c:/mingw/bin/../lib/gcc/mingw32/6.3.0/../../..\libmsvcrt.a(djpvbs00131.o)
 .idata$4       0x004910f4        0x4 c:/mingw/bin/../lib/gcc/mingw32/6.3.0/../../..\libmsvcrt.a(djpvbs00133.o)
 .idata$4       0x004910f8        0x4 c:/mingw/bin/../lib/gcc/mingw32/6.3.0/../../..\libmsvcrt.a(djpvbs00153.o)
 .idata$4       0x004910fc        0x4 c:/mingw/bin/../lib/gcc/mingw32/6.3.0/../../..\libmsvcrt.a(djpvbs00219.o)
 .idata$4       0x00491100        0x4 c:/mingw/bin/../lib/gcc/mingw32/6.3.0/../../..\libmsvcrt.a(djpvbs00285.o)
 .idata$4       0x00491104        0x4 c:/mingw/bin/../lib/gcc/mingw32/6.3.0/../../..\libmsvcrt.a(djpvbs00324.o)
 .idata$4       0x00491108        0x4 c:/mingw/bin/../lib/gcc/mingw32/6.3.0/../../..\libmsvcrt.a(djpvbs00350.o)
 .idata$4       0x0049110c        0x4 c:/mingw/bin/../lib/gcc/mingw32/6.3.0/../../..\libmsvcrt.a(djpvbs00379.o)
 .idata$4       0x00491110        0x4 c:/mingw/bin/../lib/gcc/mingw32/6.3.0/../../..\libmsvcrt.a(djpvbs00417.o)
 .idata$4       0x00491114        0x4 c:/mingw/bin/../lib/gcc/mingw32/6.3.0/../../..\libmsvcrt.a(djpvbs00422.o)
 .idata$4       0x00491118        0x4 c:/mingw/bin/../lib/gcc/mingw32/6.3.0/../../..\libmsvcrt.a(djpvbs00689.o)
 .idata$4       0x0049111c        0x4 c:/mingw/bin/../lib/gcc/mingw32/6.3.0/../../..\libmsvcrt.a(djpvbs00698.o)
 .idata$4       0x00491120        0x4 c:/mingw/bin/../lib/gcc/mingw32/6.3.0/../../..\libmsvcrt.a(djpvbs00753.o)
 .idata$4       0x00491124        0x4 c:/mingw/bin/../lib/gcc/mingw32/6.3.0/../../..\libmsvcrt.a(djpvbs00803.o)
 .idata$4       0x00491128        0x4 c:/mingw/bin/../lib/gcc/mingw32/6.3.0/../../..\libmsvcrt.a(djpvbs01083.o)
 .idata$4       0x0049112c        0x4 c:/mingw/bin/../lib/gcc/mingw32/6.3.0/../../..\libmsvcrt.a(djpvbs01091.o)
 .idata$4       0x00491130        0x4 c:/mingw/bin/../lib/gcc/mingw32/6.3.0/../../..\libmsvcrt.a(djpvbs01093.o)
 .idata$4       0x00491134        0x4 c:/mingw/bin/../lib/gcc/mingw32/6.3.0/../../..\libmsvcrt.a(djpvbs01098.o)
 .idata$4       0x00491138        0x4 c:/mingw/bin/../lib/gcc/mingw32/6.3.0/../../..\libmsvcrt.a(djpvbs01099.o)
 .idata$4       0x0049113c        0x4 c:/mingw/bin/../lib/gcc/mingw32/6.3.0/../../..\libmsvcrt.a(djpvbs01102.o)
 .idata$4       0x00491140        0x4 c:/mingw/bin/../lib/gcc/mingw32/6.3.0/../../..\libmsvcrt.a(djpvbs01106.o)
 .idata$4       0x00491144        0x4 c:/mingw/bin/../lib/gcc/mingw32/6.3.0/../../..\libmsvcrt.a(djpvbs01108.o)
 .idata$4       0x00491148        0x4 c:/mingw/bin/../lib/gcc/mingw32/6.3.0/../../..\libmsvcrt.a(djpvbs01111.o)
 .idata$4       0x0049114c        0x4 c:/mingw/bin/../lib/gcc/mingw32/6.3.0/../../..\libmsvcrt.a(djpvbs01122.o)
 .idata$4       0x00491150        0x4 c:/mingw/bin/../lib/gcc/mingw32/6.3.0/../../..\libmsvcrt.a(djpvbs01126.o)
 .idata$4       0x00491154        0x4 c:/mingw/bin/../lib/gcc/mingw32/6.3.0/../../..\libmsvcrt.a(djpvbs01131.o)
 .idata$4       0x00491158        0x4 c:/mingw/bin/../lib/gcc/mingw32/6.3.0/../../..\libmsvcrt.a(djpvbs01142.o)
 .idata$4       0x0049115c        0x4 c:/mingw/bin/../lib/gcc/mingw32/6.3.0/../../..\libmsvcrt.a(djpvbs01147.o)
 .idata$4       0x00491160        0x4 c:/mingw/bin/../lib/gcc/mingw32/6.3.0/../../..\libmsvcrt.a(djpvbs01161.o)
 .idata$4       0x00491164        0x4 c:/mingw/bin/../lib/gcc/mingw32/6.3.0/../../..\libmsvcrt.a(djpvbs01163.o)
 .idata$4       0x00491168        0x4 c:/mingw/bin/../lib/gcc/mingw32/6.3.0/../../..\libmsvcrt.a(djpvbs01182.o)
 .idata$4       0x0049116c        0x4 c:/mingw/bin/../lib/gcc/mingw32/6.3.0/../../..\libmsvcrt.a(djpvbs01183.o)
 .idata$4       0x00491170        0x4 c:/mingw/bin/../lib/gcc/mingw32/6.3.0/../../..\libmsvcrt.a(djpvbs01184.o)
 .idata$4       0x00491174        0x4 c:/mingw/bin/../lib/gcc/mingw32/6.3.0/../../..\libmsvcrt.a(djpvbs01185.o)
 .idata$4       0x00491178        0x4 c:/mingw/bin/../lib/gcc/mingw32/6.3.0/../../..\libmsvcrt.a(djpvbs01187.o)
 .idata$4       0x0049117c        0x4 c:/mingw/bin/../lib/gcc/mingw32/6.3.0/../../..\libmsvcrt.a(djpvbs01194.o)
 .idata$4       0x00491180        0x4 c:/mingw/bin/../lib/gcc/mingw32/6.3.0/../../..\libmsvcrt.a(djpvbs01199.o)
 .idata$4       0x00491184        0x4 c:/mingw/bin/../lib/gcc/mingw32/6.3.0/../../..\libmsvcrt.a(djpvbs01201.o)
 .idata$4       0x00491188        0x4 c:/mingw/bin/../lib/gcc/mingw32/6.3.0/../../..\libmsvcrt.a(djpvbs01203.o)
 .idata$4       0x0049118c        0x4 c:/mingw/bin/../lib/gcc/mingw32/6.3.0/../../..\libmsvcrt.a(djpvbs01204.o)
 .idata$4       0x00491190        0x4 c:/mingw/bin/../lib/gcc/mingw32/6.3.0/../../..\libmsvcrt.a(djpvbs01207.o)
 .idata$4       0x00491194        0x4 c:/mingw/bin/../lib/gcc/mingw32/6.3.0/../../..\libmsvcrt.a(djpvbs01211.o)
 .idata$4       0x00491198        0x4 c:/mingw/bin/../lib/gcc/mingw32/6.3.0/../../..\libmsvcrt.a(djpvbs01212.o)
 .idata$4       0x0049119c        0x4 c:/mingw/bin/../lib/gcc/mingw32/6.3.0/../../..\libmsvcrt.a(djpvbs01215.o)
 .idata$4       0x004911a0        0x4 c:/mingw/bin/../lib/gcc/mingw32/6.3.0/../../..\libmsvcrt.a(djpvbs01218.o)
 .idata$4       0x004911a4        0x4 c:/mingw/bin/../lib/gcc/mingw32/6.3.0/../../..\libmsvcrt.a(djpvbs01220.o)
 .idata$4       0x004911a8        0x4 c:/mingw/bin/../lib/gcc/mingw32/6.3.0/../../..\libmsvcrt.a(djpvbs01227.o)
 .idata$4       0x004911ac        0x4 c:/mingw/bin/../lib/gcc/mingw32/6.3.0/../../..\libmsvcrt.a(djpvbs01229.o)
 .idata$4       0x004911b0        0x4 c:/mingw/bin/../lib/gcc/mingw32/6.3.0/../../..\libmsvcrt.a(djpvbs01230.o)
 .idata$4       0x004911b4        0x4 c:/mingw/bin/../lib/gcc/mingw32/6.3.0/../../..\libmsvcrt.a(djpvbs01235.o)
 .idata$4       0x004911b8        0x4 c:/mingw/bin/../lib/gcc/mingw32/6.3.0/../../..\libmsvcrt.a(djpvbs01236.o)
 .idata$4       0x004911bc        0x4 c:/mingw/bin/../lib/gcc/mingw32/6.3.0/../../..\libmsvcrt.a(djpvbs01240.o)
 .idata$4       0x004911c0        0x4 c:/mingw/bin/../lib/gcc/mingw32/6.3.0/../../..\libmsvcrt.a(djpvbs01241.o)
 .idata$4       0x004911c4        0x4 c:/mingw/bin/../lib/gcc/mingw32/6.3.0/../../..\libmsvcrt.a(djpvbs01242.o)
 .idata$4       0x004911c8        0x4 c:/mingw/bin/../lib/gcc/mingw32/6.3.0/../../..\libmsvcrt.a(djpvbs01243.o)
 .idata$4       0x004911cc        0x4 c:/mingw/bin/../lib/gcc/mingw32/6.3.0/../../..\libmsvcrt.a(djpvbs01245.o)
 .idata$4       0x004911d0        0x4 c:/mingw/bin/../lib/gcc/mingw32/6.3.0/../../..\libmsvcrt.a(djpvbs01249.o)
 .idata$4       0x004911d4        0x4 c:/mingw/bin/../lib/gcc/mingw32/6.3.0/../../..\libmsvcrt.a(djpvbs01252.o)
 .idata$4       0x004911d8        0x4 c:/mingw/bin/../lib/gcc/mingw32/6.3.0/../../..\libmsvcrt.a(djpvbs01253.o)
 .idata$4       0x004911dc        0x4 c:/mingw/bin/../lib/gcc/mingw32/6.3.0/../../..\libmsvcrt.a(djpvbs01257.o)
 .idata$4       0x004911e0        0x4 c:/mingw/bin/../lib/gcc/mingw32/6.3.0/../../..\libmsvcrt.a(djpvbs01258.o)
 .idata$4       0x004911e4        0x4 c:/mingw/bin/../lib/gcc/mingw32/6.3.0/../../..\libmsvcrt.a(djpvbs01269.o)
 .idata$4       0x004911e8        0x4 c:/mingw/bin/../lib/gcc/mingw32/6.3.0/../../..\libmsvcrt.a(djpvbs01272.o)
 .idata$4       0x004911ec        0x4 c:/mingw/bin/../lib/gcc/mingw32/6.3.0/../../..\libmsvcrt.a(djpvbs01277.o)
 .idata$4       0x004911f0        0x4 c:/mingw/bin/../lib/gcc/mingw32/6.3.0/../../..\libmsvcrt.a(djpvbs01278.o)
 .idata$4       0x004911f4        0x4 c:/mingw/bin/../lib/gcc/mingw32/6.3.0/../../..\libmsvcrt.a(djpvbs01284.o)
 .idata$4       0x004911f8        0x4 c:/mingw/bin/../lib/gcc/mingw32/6.3.0/../../..\libmsvcrt.a(djpvbs01308.o)
 .idata$4       0x004911fc        0x4 c:/mingw/bin/../lib/gcc/mingw32/6.3.0/../../..\libmsvcrt.a(djpvbs01325.o)
 .idata$4       0x00491200        0x4 c:/mingw/bin/../lib/gcc/mingw32/6.3.0/../../..\libmsvcrt.a(djpvbt.o)
                0x00491204                __IAT_start__ = .
 SORT(*)(.idata$5)
 .idata$5       0x00491204        0x0 c:/mingw/bin/../lib/gcc/mingw32/6.3.0/../../..\libkernel32.a(dujch.o)
 .idata$5       0x00491204        0x4 c:/mingw/bin/../lib/gcc/mingw32/6.3.0/../../..\libkernel32.a(dujcs00082.o)
                0x00491204                _imp__CloseHandle@4
 .idata$5       0x00491208        0x4 c:/mingw/bin/../lib/gcc/mingw32/6.3.0/../../..\libkernel32.a(dujcs00135.o)
                0x00491208                _imp__CreateFileA@28
 .idata$5       0x0049120c        0x4 c:/mingw/bin/../lib/gcc/mingw32/6.3.0/../../..\libkernel32.a(dujcs00207.o)
                0x0049120c                _imp__DeleteCriticalSection@4
 .idata$5       0x00491210        0x4 c:/mingw/bin/../lib/gcc/mingw32/6.3.0/../../..\libkernel32.a(dujcs00236.o)
                0x00491210                _imp__EnterCriticalSection@4
 .idata$5       0x00491214        0x4 c:/mingw/bin/../lib/gcc/mingw32/6.3.0/../../..\libkernel32.a(dujcs00279.o)
                0x00491214                _imp__ExitProcess@4
 .idata$5       0x00491218        0x4 c:/mingw/bin/../lib/gcc/mingw32/6.3.0/../../..\libkernel32.a(dujcs00300.o)
                0x00491218                _imp__FindClose@4
 .idata$5       0x0049121c        0x4 c:/mingw/bin/../lib/gcc/mingw32/6.3.0/../../..\libkernel32.a(dujcs00304.o)
                0x0049121c                _imp__FindFirstFileA@8
 .idata$5       0x00491220        0x4 c:/mingw/bin/../lib/gcc/mingw32/6.3.0/../../..\libkernel32.a(dujcs00321.o)
                0x00491220                _imp__FindNextFileA@8
 .idata$5       0x00491224        0x4 c:/mingw/bin/../lib/gcc/mingw32/6.3.0/../../..\libkernel32.a(dujcs00352.o)
                0x00491224                _imp__FreeLibrary@4
 .idata$5       0x00491228        0x4 c:/mingw/bin/../lib/gcc/mingw32/6.3.0/../../..\libkernel32.a(dujcs00386.o)
                0x00491228                _imp__GetCommState@8
 .idata$5       0x0049122c        0x4 c:/mingw/bin/../lib/gcc/mingw32/6.3.0/../../..\libkernel32.a(dujcs00388.o)
                0x0049122c                _imp__GetCommandLineA@0
 .idata$5       0x00491230        0x4 c:/mingw/bin/../lib/gcc/mingw32/6.3.0/../../..\libkernel32.a(dujcs00426.o)
                0x00491230                _imp__GetConsoleMode@8
 .idata$5       0x00491234        0x4 c:/mingw/bin/../lib/gcc/mingw32/6.3.0/../../..\libkernel32.a(dujcs00510.o)
                0x00491234                _imp__GetLastError@0
 .idata$5       0x00491238        0x4 c:/mingw/bin/../lib/gcc/mingw32/6.3.0/../../..\libkernel32.a(dujcs00529.o)
                0x00491238                _imp__GetModuleHandleA@4
 .idata$5       0x0049123c        0x4 c:/mingw/bin/../lib/gcc/mingw32/6.3.0/../../..\libkernel32.a(dujcs00577.o)
                0x0049123c                _imp__GetProcAddress@8
 .idata$5       0x00491240        0x4 c:/mingw/bin/../lib/gcc/mingw32/6.3.0/../../..\libkernel32.a(dujcs00608.o)
                0x00491240                _imp__GetStdHandle@4
 .idata$5       0x00491244        0x4 c:/mingw/bin/../lib/gcc/mingw32/6.3.0/../../..\libkernel32.a(dujcs00734.o)
                0x00491244                _imp__InitializeCriticalSection@4
 .idata$5       0x00491248        0x4 c:/mingw/bin/../lib/gcc/mingw32/6.3.0/../../..\libkernel32.a(dujcs00744.o)
                0x00491248                _imp__InterlockedExchange@8
 .idata$5       0x0049124c        0x4 c:/mingw/bin/../lib/gcc/mingw32/6.3.0/../../..\libkernel32.a(dujcs00763.o)
                0x0049124c                _imp__IsDBCSLeadByteEx@8
 .idata$5       0x00491250        0x4 c:/mingw/bin/../lib/gcc/mingw32/6.3.0/../../..\libkernel32.a(dujcs00814.o)
                0x00491250                _imp__LeaveCriticalSection@4
 .idata$5       0x00491254        0x4 c:/mingw/bin/../lib/gcc/mingw32/6.3.0/../../..\libkernel32.a(dujcs00817.o)
                0x00491254                _imp__LoadLibraryA@4
 .idata$5       0x00491258        0x4 c:/mingw/bin/../lib/gcc/mingw32/6.3.0/../../..\libkernel32.a(dujcs00860.o)
                0x00491258                _imp__MultiByteToWideChar@24
 .idata$5       0x0049125c        0x4 c:/mingw/bin/../lib/gcc/mingw32/6.3.0/../../..\libkernel32.a(dujcs00947.o)
                0x0049125c                _imp__ReadFile@20
 .idata$5       0x00491260        0x4 c:/mingw/bin/../lib/gcc/mingw32/6.3.0/../../..\libkernel32.a(dujcs01013.o)
                0x00491260                _imp__SetCommState@8
 .idata$5       0x00491264        0x4 c:/mingw/bin/../lib/gcc/mingw32/6.3.0/../../..\libkernel32.a(dujcs01014.o)
                0x00491264                _imp__SetCommTimeouts@8
 .idata$5       0x00491268        0x4 c:/mingw/bin/../lib/gcc/mingw32/6.3.0/../../..\libkernel32.a(dujcs01037.o)
                0x00491268                _imp__SetConsoleMode@8
 .idata$5       0x0049126c        0x4 c:/mingw/bin/../lib/gcc/mingw32/6.3.0/../../..\libkernel32.a(dujcs01140.o)
                0x0049126c                _imp__SetUnhandledExceptionFilter@4
 .idata$5       0x00491270        0x4 c:/mingw/bin/../lib/gcc/mingw32/6.3.0/../../..\libkernel32.a(dujcs01152.o)
                0x00491270                _imp__Sleep@4
 .idata$5       0x00491274        0x4 c:/mingw/bin/../lib/gcc/mingw32/6.3.0/../../..\libkernel32.a(dujcs01173.o)
                0x00491274                _imp__TlsGetValue@4
 .idata$5       0x00491278        0x4 c:/mingw/bin/../lib/gcc/mingw32/6.3.0/../../..\libkernel32.a(dujcs01213.o)
                0x00491278                _imp__VirtualProtect@16
 .idata$5       0x0049127c        0x4 c:/mingw/bin/../lib/gcc/mingw32/6.3.0/../../..\libkernel32.a(dujcs01215.o)
                0x0049127c                _imp__VirtualQuery@12
 .idata$5       0x00491280        0x4 c:/mingw/bin/../lib/gcc/mingw32/6.3.0/../../..\libkernel32.a(dujcs01247.o)
                0x00491280                _imp__WideCharToMultiByte@32
 .idata$5       0x00491284        0x4 c:/mingw/bin/../lib/gcc/mingw32/6.3.0/../../..\libkernel32.a(dujcs01267.o)
                0x00491284                _imp__WriteFile@20
 .idata$5       0x00491288        0x4 c:/mingw/bin/../lib/gcc/mingw32/6.3.0/../../..\libkernel32.a(dujct.o)
 .idata$5       0x0049128c        0x0 c:/mingw/bin/../lib/gcc/mingw32/6.3.0/../../..\libmoldname.a(dagwbh.o)
 .idata$5       0x0049128c        0x4 c:/mingw/bin/../lib/gcc/mingw32/6.3.0/../../..\libmoldname.a(dagwbs00047.o)
                0x0049128c                _imp__kbhit
 .idata$5       0x00491290        0x4 c:/mingw/bin/../lib/gcc/mingw32/6.3.0/../../..\libmoldname.a(dagwbs00080.o)
                0x00491290                _imp__strdup
 .idata$5       0x00491294        0x4 c:/mingw/bin/../lib/gcc/mingw32/6.3.0/../../..\libmoldname.a(dagwbs00082.o)
                0x00491294                _imp__stricoll
 .idata$5       0x00491298        0x4 c:/mingw/bin/../lib/gcc/mingw32/6.3.0/../../..\libmoldname.a(dagwbt.o)
 .idata$5       0x0049129c        0x0 c:/mingw/bin/../lib/gcc/mingw32/6.3.0/../../..\libmsvcrt.a(djpvbh.o)
 .idata$5       0x0049129c        0x4 c:/mingw/bin/../lib/gcc/mingw32/6.3.0/../../..\libmsvcrt.a(djpvbs00088.o)
                0x0049129c                _imp____getmainargs
 .idata$5       0x004912a0        0x4 c:/mingw/bin/../lib/gcc/mingw32/6.3.0/../../..\libmsvcrt.a(djpvbs00119.o)
                0x004912a0                _imp____mb_cur_max
 .idata$5       0x004912a4        0x4 c:/mingw/bin/../lib/gcc/mingw32/6.3.0/../../..\libmsvcrt.a(djpvbs00131.o)
                0x004912a4                _imp____p__environ
 .idata$5       0x004912a8        0x4 c:/mingw/bin/../lib/gcc/mingw32/6.3.0/../../..\libmsvcrt.a(djpvbs00133.o)
                0x004912a8                _imp____p__fmode
 .idata$5       0x004912ac        0x4 c:/mingw/bin/../lib/gcc/mingw32/6.3.0/../../..\libmsvcrt.a(djpvbs00153.o)
                0x004912ac                _imp____set_app_type
 .idata$5       0x004912b0        0x4 c:/mingw/bin/../lib/gcc/mingw32/6.3.0/../../..\libmsvcrt.a(djpvbs00219.o)
                0x004912b0                _imp___cexit
 .idata$5       0x004912b4        0x4 c:/mingw/bin/../lib/gcc/mingw32/6.3.0/../../..\libmsvcrt.a(djpvbs00285.o)
                0x004912b4                _imp___errno
 .idata$5       0x004912b8        0x4 c:/mingw/bin/../lib/gcc/mingw32/6.3.0/../../..\libmsvcrt.a(djpvbs00324.o)
                0x004912b8                _imp___fpreset
 .idata$5       0x004912bc        0x4 c:/mingw/bin/../lib/gcc/mingw32/6.3.0/../../..\libmsvcrt.a(djpvbs00350.o)
                0x004912bc                _imp___fullpath
 .idata$5       0x004912c0        0x4 c:/mingw/bin/../lib/gcc/mingw32/6.3.0/../../..\libmsvcrt.a(djpvbs00379.o)
                0x004912c0                _imp___getch
 .idata$5       0x004912c4        0x4 c:/mingw/bin/../lib/gcc/mingw32/6.3.0/../../..\libmsvcrt.a(djpvbs00417.o)
                0x004912c4                _imp___iob
 .idata$5       0x004912c8        0x4 c:/mingw/bin/../lib/gcc/mingw32/6.3.0/../../..\libmsvcrt.a(djpvbs00422.o)
                0x004912c8                _imp___isctype
 .idata$5       0x004912cc        0x4 c:/mingw/bin/../lib/gcc/mingw32/6.3.0/../../..\libmsvcrt.a(djpvbs00689.o)
                0x004912cc                _imp___onexit
 .idata$5       0x004912d0        0x4 c:/mingw/bin/../lib/gcc/mingw32/6.3.0/../../..\libmsvcrt.a(djpvbs00698.o)
                0x004912d0                _imp___pctype
 .idata$5       0x004912d4        0x4 c:/mingw/bin/../lib/gcc/mingw32/6.3.0/../../..\libmsvcrt.a(djpvbs00753.o)
                0x004912d4                _imp___setmode
 .idata$5       0x004912d8        0x4 c:/mingw/bin/../lib/gcc/mingw32/6.3.0/../../..\libmsvcrt.a(djpvbs00803.o)
                0x004912d8                _imp___stricmp
 .idata$5       0x004912dc        0x4 c:/mingw/bin/../lib/gcc/mingw32/6.3.0/../../..\libmsvcrt.a(djpvbs01083.o)
                0x004912dc                _imp__abort
 .idata$5       0x004912e0        0x4 c:/mingw/bin/../lib/gcc/mingw32/6.3.0/../../..\libmsvcrt.a(djpvbs01091.o)
                0x004912e0                _imp__atexit
 .idata$5       0x004912e4        0x4 c:/mingw/bin/../lib/gcc/mingw32/6.3.0/../../..\libmsvcrt.a(djpvbs01093.o)
                0x004912e4                _imp__atoi
 .idata$5       0x004912e8        0x4 c:/mingw/bin/../lib/gcc/mingw32/6.3.0/../../..\libmsvcrt.a(djpvbs01098.o)
                0x004912e8                _imp__calloc
 .idata$5       0x004912ec        0x4 c:/mingw/bin/../lib/gcc/mingw32/6.3.0/../../..\libmsvcrt.a(djpvbs01099.o)
                0x004912ec                _imp__ceil
 .idata$5       0x004912f0        0x4 c:/mingw/bin/../lib/gcc/mingw32/6.3.0/../../..\libmsvcrt.a(djpvbs01102.o)
                0x004912f0                _imp__clock
 .idata$5       0x004912f4        0x4 c:/mingw/bin/../lib/gcc/mingw32/6.3.0/../../..\libmsvcrt.a(djpvbs01106.o)
                0x004912f4                _imp__difftime
 .idata$5       0x004912f8        0x4 c:/mingw/bin/../lib/gcc/mingw32/6.3.0/../../..\libmsvcrt.a(djpvbs01108.o)
                0x004912f8                _imp__exit
 .idata$5       0x004912fc        0x4 c:/mingw/bin/../lib/gcc/mingw32/6.3.0/../../..\libmsvcrt.a(djpvbs01111.o)
                0x004912fc                _imp__fclose
 .idata$5       0x00491300        0x4 c:/mingw/bin/../lib/gcc/mingw32/6.3.0/../../..\libmsvcrt.a(djpvbs01122.o)
                0x00491300                _imp__fopen
 .idata$5       0x00491304        0x4 c:/mingw/bin/../lib/gcc/mingw32/6.3.0/../../..\libmsvcrt.a(djpvbs01126.o)
                0x00491304                _imp__fputc
 .idata$5       0x00491308        0x4 c:/mingw/bin/../lib/gcc/mingw32/6.3.0/../../..\libmsvcrt.a(djpvbs01131.o)
                0x00491308                _imp__free
 .idata$5       0x0049130c        0x4 c:/mingw/bin/../lib/gcc/mingw32/6.3.0/../../..\libmsvcrt.a(djpvbs01142.o)
                0x0049130c                _imp__fwrite
 .idata$5       0x00491310        0x4 c:/mingw/bin/../lib/gcc/mingw32/6.3.0/../../..\libmsvcrt.a(djpvbs01147.o)
                0x00491310                _imp__getenv
 .idata$5       0x00491314        0x4 c:/mingw/bin/../lib/gcc/mingw32/6.3.0/../../..\libmsvcrt.a(djpvbs01161.o)
                0x00491314                _imp__isprint
 .idata$5       0x00491318        0x4 c:/mingw/bin/../lib/gcc/mingw32/6.3.0/../../..\libmsvcrt.a(djpvbs01163.o)
                0x00491318                _imp__isspace
 .idata$5       0x0049131c        0x4 c:/mingw/bin/../lib/gcc/mingw32/6.3.0/../../..\libmsvcrt.a(djpvbs01182.o)
                0x0049131c                _imp__localeconv
 .idata$5       0x00491320        0x4 c:/mingw/bin/../lib/gcc/mingw32/6.3.0/../../..\libmsvcrt.a(djpvbs01183.o)
                0x00491320                _imp__localtime
 .idata$5       0x00491324        0x4 c:/mingw/bin/../lib/gcc/mingw32/6.3.0/../../..\libmsvcrt.a(djpvbs01184.o)
                0x00491324                _imp__log
 .idata$5       0x00491328        0x4 c:/mingw/bin/../lib/gcc/mingw32/6.3.0/../../..\libmsvcrt.a(djpvbs01185.o)
                0x00491328                _imp__log10
 .idata$5       0x0049132c        0x4 c:/mingw/bin/../lib/gcc/mingw32/6.3.0/../../..\libmsvcrt.a(djpvbs01187.o)
                0x0049132c                _imp__malloc
 .idata$5       0x00491330        0x4 c:/mingw/bin/../lib/gcc/mingw32/6.3.0/../../..\libmsvcrt.a(djpvbs01194.o)
                0x00491330                _imp__mbstowcs
 .idata$5       0x00491334        0x4 c:/mingw/bin/../lib/gcc/mingw32/6.3.0/../../..\libmsvcrt.a(djpvbs01199.o)
                0x00491334                _imp__memcpy
 .idata$5       0x00491338        0x4 c:/mingw/bin/../lib/gcc/mingw32/6.3.0/../../..\libmsvcrt.a(djpvbs01201.o)
                0x00491338                _imp__memmove
 .idata$5       0x0049133c        0x4 c:/mingw/bin/../lib/gcc/mingw32/6.3.0/../../..\libmsvcrt.a(djpvbs01203.o)
                0x0049133c                _imp__memset
 .idata$5       0x00491340        0x4 c:/mingw/bin/../lib/gcc/mingw32/6.3.0/../../..\libmsvcrt.a(djpvbs01204.o)
                0x00491340                _imp__mktime
 .idata$5       0x00491344        0x4 c:/mingw/bin/../lib/gcc/mingw32/6.3.0/../../..\libmsvcrt.a(djpvbs01207.o)
                0x00491344                _imp__pow
 .idata$5       0x00491348        0x4 c:/mingw/bin/../lib/gcc/mingw32/6.3.0/../../..\libmsvcrt.a(djpvbs01211.o)
                0x00491348                _imp__putchar
 .idata$5       0x0049134c        0x4 c:/mingw/bin/../lib/gcc/mingw32/6.3.0/../../..\libmsvcrt.a(djpvbs01212.o)
                0x0049134c                _imp__puts
 .idata$5       0x00491350        0x4 c:/mingw/bin/../lib/gcc/mingw32/6.3.0/../../..\libmsvcrt.a(djpvbs01215.o)
                0x00491350                _imp__qsort
 .idata$5       0x00491354        0x4 c:/mingw/bin/../lib/gcc/mingw32/6.3.0/../../..\libmsvcrt.a(djpvbs01218.o)
                0x00491354                _imp__rand
 .idata$5       0x00491358        0x4 c:/mingw/bin/../lib/gcc/mingw32/6.3.0/../../..\libmsvcrt.a(djpvbs01220.o)
                0x00491358                _imp__realloc
 .idata$5       0x0049135c        0x4 c:/mingw/bin/../lib/gcc/mingw32/6.3.0/../../..\libmsvcrt.a(djpvbs01227.o)
                0x0049135c                _imp__setlocale
 .idata$5       0x00491360        0x4 c:/mingw/bin/../lib/gcc/mingw32/6.3.0/../../..\libmsvcrt.a(djpvbs01229.o)
                0x00491360                _imp__signal
 .idata$5       0x00491364        0x4 c:/mingw/bin/../lib/gcc/mingw32/6.3.0/../../..\libmsvcrt.a(djpvbs01230.o)
                0x00491364                _imp__sin
 .idata$5       0x00491368        0x4 c:/mingw/bin/../lib/gcc/mingw32/6.3.0/../../..\libmsvcrt.a(djpvbs01235.o)
                0x00491368                _imp__srand
 .idata$5       0x0049136c        0x4 c:/mingw/bin/../lib/gcc/mingw32/6.3.0/../../..\libmsvcrt.a(djpvbs01236.o)
                0x0049136c                _imp__sscanf
 .idata$5       0x00491370        0x4 c:/mingw/bin/../lib/gcc/mingw32/6.3.0/../../..\libmsvcrt.a(djpvbs01240.o)
                0x00491370                _imp__strchr
 .idata$5       0x00491374        0x4 c:/mingw/bin/../lib/gcc/mingw32/6.3.0/../../..\libmsvcrt.a(djpvbs01241.o)
                0x00491374                _imp__strcmp
 .idata$5       0x00491378        0x4 c:/mingw/bin/../lib/gcc/mingw32/6.3.0/../../..\libmsvcrt.a(djpvbs01242.o)
                0x00491378                _imp__strcoll
 .idata$5       0x0049137c        0x4 c:/mingw/bin/../lib/gcc/mingw32/6.3.0/../../..\libmsvcrt.a(djpvbs01243.o)
                0x0049137c                _imp__strcpy
 .idata$5       0x00491380        0x4 c:/mingw/bin/../lib/gcc/mingw32/6.3.0/../../..\libmsvcrt.a(djpvbs01245.o)
                0x00491380                _imp__strcspn
 .idata$5       0x00491384        0x4 c:/mingw/bin/../lib/gcc/mingw32/6.3.0/../../..\libmsvcrt.a(djpvbs01249.o)
                0x00491384                _imp__strlen
 .idata$5       0x00491388        0x4 c:/mingw/bin/../lib/gcc/mingw32/6.3.0/../../..\libmsvcrt.a(djpvbs01252.o)
                0x00491388                _imp__strncmp
 .idata$5       0x0049138c        0x4 c:/mingw/bin/../lib/gcc/mingw32/6.3.0/../../..\libmsvcrt.a(djpvbs01253.o)
                0x0049138c                _imp__strncpy
 .idata$5       0x00491390        0x4 c:/mingw/bin/../lib/gcc/mingw32/6.3.0/../../..\libmsvcrt.a(djpvbs01257.o)
                0x00491390                _imp__strspn
 .idata$5       0x00491394        0x4 c:/mingw/bin/../lib/gcc/mingw32/6.3.0/../../..\libmsvcrt.a(djpvbs01258.o)
                0x00491394                _imp__strstr
 .idata$5       0x00491398        0x4 c:/mingw/bin/../lib/gcc/mingw32/6.3.0/../../..\libmsvcrt.a(djpvbs01269.o)
                0x00491398                _imp__system
 .idata$5       0x0049139c        0x4 c:/mingw/bin/../lib/gcc/mingw32/6.3.0/../../..\libmsvcrt.a(djpvbs01272.o)
                0x0049139c                _imp__time
 .idata$5       0x004913a0        0x4 c:/mingw/bin/../lib/gcc/mingw32/6.3.0/../../..\libmsvcrt.a(djpvbs01277.o)
                0x004913a0                _imp__tolower
 .idata$5       0x004913a4        0x4 c:/mingw/bin/../lib/gcc/mingw32/6.3.0/../../..\libmsvcrt.a(djpvbs01278.o)
                0x004913a4                _imp__toupper
 .idata$5       0x004913a8        0x4 c:/mingw/bin/../lib/gcc/mingw32/6.3.0/../../..\libmsvcrt.a(djpvbs01284.o)
                0x004913a8                _imp__vfprintf
 .idata$5       0x004913ac        0x4 c:/mingw/bin/../lib/gcc/mingw32/6.3.0/../../..\libmsvcrt.a(djpvbs01308.o)
                0x004913ac                _imp__wcslen
 .idata$5       0x004913b0        0x4 c:/mingw/bin/../lib/gcc/mingw32/6.3.0/../../..\libmsvcrt.a(djpvbs01325.o)
                0x004913b0                _imp__wcstombs
 .idata$5       0x004913b4        0x4 c:/mingw/bin/../lib/gcc/mingw32/6.3.0/../../..\libmsvcrt.a(djpvbt.o)
                0x004913b8                __IAT_end__ = .
 SORT(*)(.idata$6)
 .idata$6       0x004913b8        0xe c:/mingw/bin/../lib/gcc/mingw32/6.3.0/../../..\libkernel32.a(dujcs00082.o)
 .idata$6       0x004913c6        0xe c:/mingw/bin/../lib/gcc/mingw32/6.3.0/../../..\libkernel32.a(dujcs00135.o)
 .idata$6       0x004913d4       0x18 c:/mingw/bin/../lib/gcc/mingw32/6.3.0/../../..\libkernel32.a(dujcs00207.o)
 .idata$6       0x004913ec       0x18 c:/mingw/bin/../lib/gcc/mingw32/6.3.0/../../..\libkernel32.a(dujcs00236.o)
 .idata$6       0x00491404        0xe c:/mingw/bin/../lib/gcc/mingw32/6.3.0/../../..\libkernel32.a(dujcs00279.o)
 .idata$6       0x00491412        0xc c:/mingw/bin/../lib/gcc/mingw32/6.3.0/../../..\libkernel32.a(dujcs00300.o)
 .idata$6       0x0049141e       0x12 c:/mingw/bin/../lib/gcc/mingw32/6.3.0/../../..\libkernel32.a(dujcs00304.o)
 .idata$6       0x00491430       0x10 c:/mingw/bin/../lib/gcc/mingw32/6.3.0/../../..\libkernel32.a(dujcs00321.o)
 .idata$6       0x00491440        0xe c:/mingw/bin/../lib/gcc/mingw32/6.3.0/../../..\libkernel32.a(dujcs00352.o)
 .idata$6       0x0049144e       0x10 c:/mingw/bin/../lib/gcc/mingw32/6.3.0/../../..\libkernel32.a(dujcs00386.o)
 .idata$6       0x0049145e       0x12 c:/mingw/bin/../lib/gcc/mingw32/6.3.0/../../..\libkernel32.a(dujcs00388.o)
 .idata$6       0x00491470       0x12 c:/mingw/bin/../lib/gcc/mingw32/6.3.0/../../..\libkernel32.a(dujcs00426.o)
 .idata$6       0x00491482       0x10 c:/mingw/bin/../lib/gcc/mingw32/6.3.0/../../..\libkernel32.a(dujcs00510.o)
 .idata$6       0x00491492       0x14 c:/mingw/bin/../lib/gcc/mingw32/6.3.0/../../..\libkernel32.a(dujcs00529.o)
 .idata$6       0x004914a6       0x12 c:/mingw/bin/../lib/gcc/mingw32/6.3.0/../../..\libkernel32.a(dujcs00577.o)
 .idata$6       0x004914b8       0x10 c:/mingw/bin/../lib/gcc/mingw32/6.3.0/../../..\libkernel32.a(dujcs00608.o)
 .idata$6       0x004914c8       0x1c c:/mingw/bin/../lib/gcc/mingw32/6.3.0/../../..\libkernel32.a(dujcs00734.o)
 .idata$6       0x004914e4       0x16 c:/mingw/bin/../lib/gcc/mingw32/6.3.0/../../..\libkernel32.a(dujcs00744.o)
 .idata$6       0x004914fa       0x14 c:/mingw/bin/../lib/gcc/mingw32/6.3.0/../../..\libkernel32.a(dujcs00763.o)
 .idata$6       0x0049150e       0x18 c:/mingw/bin/../lib/gcc/mingw32/6.3.0/../../..\libkernel32.a(dujcs00814.o)
 .idata$6       0x00491526       0x10 c:/mingw/bin/../lib/gcc/mingw32/6.3.0/../../..\libkernel32.a(dujcs00817.o)
 .idata$6       0x00491536       0x16 c:/mingw/bin/../lib/gcc/mingw32/6.3.0/../../..\libkernel32.a(dujcs00860.o)
 .idata$6       0x0049154c        0xc c:/mingw/bin/../lib/gcc/mingw32/6.3.0/../../..\libkernel32.a(dujcs00947.o)
 .idata$6       0x00491558       0x10 c:/mingw/bin/../lib/gcc/mingw32/6.3.0/../../..\libkernel32.a(dujcs01013.o)
 .idata$6       0x00491568       0x12 c:/mingw/bin/../lib/gcc/mingw32/6.3.0/../../..\libkernel32.a(dujcs01014.o)
 .idata$6       0x0049157a       0x12 c:/mingw/bin/../lib/gcc/mingw32/6.3.0/../../..\libkernel32.a(dujcs01037.o)
 .idata$6       0x0049158c       0x1e c:/mingw/bin/../lib/gcc/mingw32/6.3.0/../../..\libkernel32.a(dujcs01140.o)
 .idata$6       0x004915aa        0x8 c:/mingw/bin/../lib/gcc/mingw32/6.3.0/../../..\libkernel32.a(dujcs01152.o)
 .idata$6       0x004915b2        0xe c:/mingw/bin/../lib/gcc/mingw32/6.3.0/../../..\libkernel32.a(dujcs01173.o)
 .idata$6       0x004915c0       0x12 c:/mingw/bin/../lib/gcc/mingw32/6.3.0/../../..\libkernel32.a(dujcs01213.o)
 .idata$6       0x004915d2       0x10 c:/mingw/bin/../lib/gcc/mingw32/6.3.0/../../..\libkernel32.a(dujcs01215.o)
 .idata$6       0x004915e2       0x16 c:/mingw/bin/../lib/gcc/mingw32/6.3.0/../../..\libkernel32.a(dujcs01247.o)
 .idata$6       0x004915f8        0xc c:/mingw/bin/../lib/gcc/mingw32/6.3.0/../../..\libkernel32.a(dujcs01267.o)
 .idata$6       0x00491604        0xa c:/mingw/bin/../lib/gcc/mingw32/6.3.0/../../..\libmoldname.a(dagwbs00047.o)
 .idata$6       0x0049160e        0xa c:/mingw/bin/../lib/gcc/mingw32/6.3.0/../../..\libmoldname.a(dagwbs00080.o)
 .idata$6       0x00491618        0xc c:/mingw/bin/../lib/gcc/mingw32/6.3.0/../../..\libmoldname.a(dagwbs00082.o)
 .idata$6       0x00491624       0x10 c:/mingw/bin/../lib/gcc/mingw32/6.3.0/../../..\libmsvcrt.a(djpvbs00088.o)
 .idata$6       0x00491634       0x10 c:/mingw/bin/../lib/gcc/mingw32/6.3.0/../../..\libmsvcrt.a(djpvbs00119.o)
 .idata$6       0x00491644       0x10 c:/mingw/bin/../lib/gcc/mingw32/6.3.0/../../..\libmsvcrt.a(djpvbs00131.o)
 .idata$6       0x00491654        0xe c:/mingw/bin/../lib/gcc/mingw32/6.3.0/../../..\libmsvcrt.a(djpvbs00133.o)
 .idata$6       0x00491662       0x12 c:/mingw/bin/../lib/gcc/mingw32/6.3.0/../../..\libmsvcrt.a(djpvbs00153.o)
 .idata$6       0x00491674        0xa c:/mingw/bin/../lib/gcc/mingw32/6.3.0/../../..\libmsvcrt.a(djpvbs00219.o)
 .idata$6       0x0049167e        0xa c:/mingw/bin/../lib/gcc/mingw32/6.3.0/../../..\libmsvcrt.a(djpvbs00285.o)
 .idata$6       0x00491688        0xc c:/mingw/bin/../lib/gcc/mingw32/6.3.0/../../..\libmsvcrt.a(djpvbs00324.o)
 .idata$6       0x00491694        0xc c:/mingw/bin/../lib/gcc/mingw32/6.3.0/../../..\libmsvcrt.a(djpvbs00350.o)
 .idata$6       0x004916a0        0xa c:/mingw/bin/../lib/gcc/mingw32/6.3.0/../../..\libmsvcrt.a(djpvbs00379.o)
 .idata$6       0x004916aa        0x8 c:/mingw/bin/../lib/gcc/mingw32/6.3.0/../../..\libmsvcrt.a(djpvbs00417.o)
 .idata$6       0x004916b2        0xc c:/mingw/bin/../lib/gcc/mingw32/6.3.0/../../..\libmsvcrt.a(djpvbs00422.o)
 .idata$6       0x004916be        0xa c:/mingw/bin/../lib/gcc/mingw32/6.3.0/../../..\libmsvcrt.a(djpvbs00689.o)
 .idata$6       0x004916c8        0xa c:/mingw/bin/../lib/gcc/mingw32/6.3.0/../../..\libmsvcrt.a(djpvbs00698.o)
 .idata$6       0x004916d2        0xc c:/mingw/bin/../lib/gcc/mingw32/6.3.0/../../..\libmsvcrt.a(djpvbs00753.o)
 .idata$6       0x004916de        0xc c:/mingw/bin/../lib/gcc/mingw32/6.3.0/../../..\libmsvcrt.a(djpvbs00803.o)
 .idata$6       0x004916ea        0x8 c:/mingw/bin/../lib/gcc/mingw32/6.3.0/../../..\libmsvcrt.a(djpvbs01083.o)
 .idata$6       0x004916f2        0xa c:/mingw/bin/../lib/gcc/mingw32/6.3.0/../../..\libmsvcrt.a(djpvbs01091.o)
 .idata$6       0x004916fc        0x8 c:/mingw/bin/../lib/gcc/mingw32/6.3.0/../../..\libmsvcrt.a(djpvbs01093.o)
 .idata$6       0x00491704        0xa c:/mingw/bin/../lib/gcc/mingw32/6.3.0/../../..\libmsvcrt.a(djpvbs01098.o)
 .idata$6       0x0049170e        0x8 c:/mingw/bin/../lib/gcc/mingw32/6.3.0/../../..\libmsvcrt.a(djpvbs01099.o)
 .idata$6       0x00491716        0x8 c:/mingw/bin/../lib/gcc/mingw32/6.3.0/../../..\libmsvcrt.a(djpvbs01102.o)
 .idata$6       0x0049171e        0xc c:/mingw/bin/../lib/gcc/mingw32/6.3.0/../../..\libmsvcrt.a(djpvbs01106.o)
 .idata$6       0x0049172a        0x8 c:/mingw/bin/../lib/gcc/mingw32/6.3.0/../../..\libmsvcrt.a(djpvbs01108.o)
 .idata$6       0x00491732        0xa c:/mingw/bin/../lib/gcc/mingw32/6.3.0/../../..\libmsvcrt.a(djpvbs01111.o)
 .idata$6       0x0049173c        0x8 c:/mingw/bin/../lib/gcc/mingw32/6.3.0/../../..\libmsvcrt.a(djpvbs01122.o)
 .idata$6       0x00491744        0x8 c:/mingw/bin/../lib/gcc/mingw32/6.3.0/../../..\libmsvcrt.a(djpvbs01126.o)
 .idata$6       0x0049174c        0x8 c:/mingw/bin/../lib/gcc/mingw32/6.3.0/../../..\libmsvcrt.a(djpvbs01131.o)
 .idata$6       0x00491754        0xa c:/mingw/bin/../lib/gcc/mingw32/6.3.0/../../..\libmsvcrt.a(djpvbs01142.o)
 .idata$6       0x0049175e        0xa c:/mingw/bin/../lib/gcc/mingw32/6.3.0/../../..\libmsvcrt.a(djpvbs01147.o)
 .idata$6       0x00491768        0xa c:/mingw/bin/../lib/gcc/mingw32/6.3.0/../../..\libmsvcrt.a(djpvbs01161.o)
 .idata$6       0x00491772        0xa c:/mingw/bin/../lib/gcc/mingw32/6.3.0/../../..\libmsvcrt.a(djpvbs01163.o)
 .idata$6       0x0049177c        0xe c:/mingw/bin/../lib/gcc/mingw32/6.3.0/../../..\libmsvcrt.a(djpvbs01182.o)
 .idata$6       0x0049178a        0xc c:/mingw/bin/../lib/gcc/mingw32/6.3.0/../../..\libmsvcrt.a(djpvbs01183.o)
 .idata$6       0x00491796        0x6 c:/mingw/bin/../lib/gcc/mingw32/6.3.0/../../..\libmsvcrt.a(djpvbs01184.o)
 .idata$6       0x0049179c        0x8 c:/mingw/bin/../lib/gcc/mingw32/6.3.0/../../..\libmsvcrt.a(djpvbs01185.o)
 .idata$6       0x004917a4        0xa c:/mingw/bin/../lib/gcc/mingw32/6.3.0/../../..\libmsvcrt.a(djpvbs01187.o)
 .idata$6       0x004917ae        0xc c:/mingw/bin/../lib/gcc/mingw32/6.3.0/../../..\libmsvcrt.a(djpvbs01194.o)
 .idata$6       0x004917ba        0xa c:/mingw/bin/../lib/gcc/mingw32/6.3.0/../../..\libmsvcrt.a(djpvbs01199.o)
 .idata$6       0x004917c4        0xa c:/mingw/bin/../lib/gcc/mingw32/6.3.0/../../..\libmsvcrt.a(djpvbs01201.o)
 .idata$6       0x004917ce        0xa c:/mingw/bin/../lib/gcc/mingw32/6.3.0/../../..\libmsvcrt.a(djpvbs01203.o)
 .idata$6       0x004917d8        0xa c:/mingw/bin/../lib/gcc/mingw32/6.3.0/../../..\libmsvcrt.a(djpvbs01204.o)
 .idata$6       0x004917e2        0x6 c:/mingw/bin/../lib/gcc/mingw32/6.3.0/../../..\libmsvcrt.a(djpvbs01207.o)
 .idata$6       0x004917e8        0xa c:/mingw/bin/../lib/gcc/mingw32/6.3.0/../../..\libmsvcrt.a(djpvbs01211.o)
 .idata$6       0x004917f2        0x8 c:/mingw/bin/../lib/gcc/mingw32/6.3.0/../../..\libmsvcrt.a(djpvbs01212.o)
 .idata$6       0x004917fa        0x8 c:/mingw/bin/../lib/gcc/mingw32/6.3.0/../../..\libmsvcrt.a(djpvbs01215.o)
 .idata$6       0x00491802        0x8 c:/mingw/bin/../lib/gcc/mingw32/6.3.0/../../..\libmsvcrt.a(djpvbs01218.o)
 .idata$6       0x0049180a        0xa c:/mingw/bin/../lib/gcc/mingw32/6.3.0/../../..\libmsvcrt.a(djpvbs01220.o)
 .idata$6       0x00491814        0xc c:/mingw/bin/../lib/gcc/mingw32/6.3.0/../../..\libmsvcrt.a(djpvbs01227.o)
 .idata$6       0x00491820        0xa c:/mingw/bin/../lib/gcc/mingw32/6.3.0/../../..\libmsvcrt.a(djpvbs01229.o)
 .idata$6       0x0049182a        0x6 c:/mingw/bin/../lib/gcc/mingw32/6.3.0/../../..\libmsvcrt.a(djpvbs01230.o)
 .idata$6       0x00491830        0x8 c:/mingw/bin/../lib/gcc/mingw32/6.3.0/../../..\libmsvcrt.a(djpvbs01235.o)
 .idata$6       0x00491838        0xa c:/mingw/bin/../lib/gcc/mingw32/6.3.0/../../..\libmsvcrt.a(djpvbs01236.o)
 .idata$6       0x00491842        0xa c:/mingw/bin/../lib/gcc/mingw32/6.3.0/../../..\libmsvcrt.a(djpvbs01240.o)
 .idata$6       0x0049184c        0xa c:/mingw/bin/../lib/gcc/mingw32/6.3.0/../../..\libmsvcrt.a(djpvbs01241.o)
 .idata$6       0x00491856        0xa c:/mingw/bin/../lib/gcc/mingw32/6.3.0/../../..\libmsvcrt.a(djpvbs01242.o)
 .idata$6       0x00491860        0xa c:/mingw/bin/../lib/gcc/mingw32/6.3.0/../../..\libmsvcrt.a(djpvbs01243.o)
 .idata$6       0x0049186a        0xa c:/mingw/bin/../lib/gcc/mingw32/6.3.0/../../..\libmsvcrt.a(djpvbs01245.o)
 .idata$6       0x00491874        0xa c:/mingw/bin/../lib/gcc/mingw32/6.3.0/../../..\libmsvcrt.a(djpvbs01249.o)
 .idata$6       0x0049187e        0xa c:/mingw/bin/../lib/gcc/mingw32/6.3.0/../../..\libmsvcrt.a(djpvbs01252.o)
 .idata$6       0x00491888        0xa c:/mingw/bin/../lib/gcc/mingw32/6.3.0/../../..\libmsvcrt.a(djpvbs01253.o)
 .idata$6       0x00491892        0xa c:/mingw/bin/../lib/gcc/mingw32/6.3.0/../../..\libmsvcrt.a(djpvbs01257.o)
 .idata$6       0x0049189c        0xa c:/mingw/bin/../lib/gcc/mingw32/6.3.0/../../..\libmsvcrt.a(djpvbs01258.o)
 .idata$6       0x004918a6        0xa c:/mingw/bin/../lib/gcc/mingw32/6.3.0/../../..\libmsvcrt.a(djpvbs01269.o)
 .idata$6       0x004918b0        0x8 c:/mingw/bin/../lib/gcc/mingw32/6.3.0/../../..\libmsvcrt.a(djpvbs01272.o)
 .idata$6       0x004918b8        0xa c:/mingw/bin/../lib/gcc/mingw32/6.3.0/../../..\libmsvcrt.a(djpvbs01277.o)
 .idata$6       0x004918c2        0xa c:/mingw/bin/../lib/gcc/mingw32/6.3.0/../../..\libmsvcrt.a(djpvbs01278.o)
 .idata$6       0x004918cc        0xc c:/mingw/bin/../lib/gcc/mingw32/6.3.0/../../..\libmsvcrt.a(djpvbs01284.o)
 .idata$6       0x004918d8        0xa c:/mingw/bin/../lib/gcc/mingw32/6.3.0/../../..\libmsvcrt.a(djpvbs01308.o)
 .idata$6       0x004918e2        0xc c:/mingw/bin/../lib/gcc/mingw32/6.3.0/../../..\libmsvcrt.a(djpvbs01325.o)
 SORT(*)(.idata$7)
 *fill*         0x004918ee        0x2 
 .idata$7       0x004918f0        0x4 c:/mingw/bin/../lib/gcc/mingw32/6.3.0/../../..\libkernel32.a(dujcs00082.o)
 .idata$7       0x004918f4        0x4 c:/mingw/bin/../lib/gcc/mingw32/6.3.0/../../..\libkernel32.a(dujcs00135.o)
 .idata$7       0x004918f8        0x4 c:/mingw/bin/../lib/gcc/mingw32/6.3.0/../../..\libkernel32.a(dujcs00207.o)
 .idata$7       0x004918fc        0x4 c:/mingw/bin/../lib/gcc/mingw32/6.3.0/../../..\libkernel32.a(dujcs00236.o)
 .idata$7       0x00491900        0x4 c:/mingw/bin/../lib/gcc/mingw32/6.3.0/../../..\libkernel32.a(dujcs00279.o)
 .idata$7       0x00491904        0x4 c:/mingw/bin/../lib/gcc/mingw32/6.3.0/../../..\libkernel32.a(dujcs00300.o)
 .idata$7       0x00491908        0x4 c:/mingw/bin/../lib/gcc/mingw32/6.3.0/../../..\libkernel32.a(dujcs00304.o)
 .idata$7       0x0049190c        0x4 c:/mingw/bin/../lib/gcc/mingw32/6.3.0/../../..\libkernel32.a(dujcs00321.o)
 .idata$7       0x00491910        0x4 c:/mingw/bin/../lib/gcc/mingw32/6.3.0/../../..\libkernel32.a(dujcs00352.o)
 .idata$7       0x00491914        0x4 c:/mingw/bin/../lib/gcc/mingw32/6.3.0/../../..\libkernel32.a(dujcs00386.o)
 .idata$7       0x00491918        0x4 c:/mingw/bin/../lib/gcc/mingw32/6.3.0/../../..\libkernel32.a(dujcs00388.o)
 .idata$7       0x0049191c        0x4 c:/mingw/bin/../lib/gcc/mingw32/6.3.0/../../..\libkernel32.a(dujcs00426.o)
 .idata$7       0x00491920        0x4 c:/mingw/bin/../lib/gcc/mingw32/6.3.0/../../..\libkernel32.a(dujcs00510.o)
 .idata$7       0x00491924        0x4 c:/mingw/bin/../lib/gcc/mingw32/6.3.0/../../..\libkernel32.a(dujcs00529.o)
 .idata$7       0x00491928        0x4 c:/mingw/bin/../lib/gcc/mingw32/6.3.0/../../..\libkernel32.a(dujcs00577.o)
 .idata$7       0x0049192c        0x4 c:/mingw/bin/../lib/gcc/mingw32/6.3.0/../../..\libkernel32.a(dujcs00608.o)
 .idata$7       0x00491930        0x4 c:/mingw/bin/../lib/gcc/mingw32/6.3.0/../../..\libkernel32.a(dujcs00734.o)
 .idata$7       0x00491934        0x4 c:/mingw/bin/../lib/gcc/mingw32/6.3.0/../../..\libkernel32.a(dujcs00744.o)
 .idata$7       0x00491938        0x4 c:/mingw/bin/../lib/gcc/mingw32/6.3.0/../../..\libkernel32.a(dujcs00763.o)
 .idata$7       0x0049193c        0x4 c:/mingw/bin/../lib/gcc/mingw32/6.3.0/../../..\libkernel32.a(dujcs00814.o)
 .idata$7       0x00491940        0x4 c:/mingw/bin/../lib/gcc/mingw32/6.3.0/../../..\libkernel32.a(dujcs00817.o)
 .idata$7       0x00491944        0x4 c:/mingw/bin/../lib/gcc/mingw32/6.3.0/../../..\libkernel32.a(dujcs00860.o)
 .idata$7       0x00491948        0x4 c:/mingw/bin/../lib/gcc/mingw32/6.3.0/../../..\libkernel32.a(dujcs00947.o)
 .idata$7       0x0049194c        0x4 c:/mingw/bin/../lib/gcc/mingw32/6.3.0/../../..\libkernel32.a(dujcs01013.o)
 .idata$7       0x00491950        0x4 c:/mingw/bin/../lib/gcc/mingw32/6.3.0/../../..\libkernel32.a(dujcs01014.o)
 .idata$7       0x00491954        0x4 c:/mingw/bin/../lib/gcc/mingw32/6.3.0/../../..\libkernel32.a(dujcs01037.o)
 .idata$7       0x00491958        0x4 c:/mingw/bin/../lib/gcc/mingw32/6.3.0/../../..\libkernel32.a(dujcs01140.o)
 .idata$7       0x0049195c        0x4 c:/mingw/bin/../lib/gcc/mingw32/6.3.0/../../..\libkernel32.a(dujcs01152.o)
 .idata$7       0x00491960        0x4 c:/mingw/bin/../lib/gcc/mingw32/6.3.0/../../..\libkernel32.a(dujcs01173.o)
 .idata$7       0x00491964        0x4 c:/mingw/bin/../lib/gcc/mingw32/6.3.0/../../..\libkernel32.a(dujcs01213.o)
 .idata$7       0x00491968        0x4 c:/mingw/bin/../lib/gcc/mingw32/6.3.0/../../..\libkernel32.a(dujcs01215.o)
 .idata$7       0x0049196c        0x4 c:/mingw/bin/../lib/gcc/mingw32/6.3.0/../../..\libkernel32.a(dujcs01247.o)
 .idata$7       0x00491970        0x4 c:/mingw/bin/../lib/gcc/mingw32/6.3.0/../../..\libkernel32.a(dujcs01267.o)
 .idata$7       0x00491974       0x10 c:/mingw/bin/../lib/gcc/mingw32/6.3.0/../../..\libkernel32.a(dujct.o)
                0x00491974                _libkernel32_a_iname
 .idata$7       0x00491984        0x4 c:/mingw/bin/../lib/gcc/mingw32/6.3.0/../../..\libmoldname.a(dagwbs00047.o)
 .idata$7       0x00491988        0x4 c:/mingw/bin/../lib/gcc/mingw32/6.3.0/../../..\libmoldname.a(dagwbs00080.o)
 .idata$7       0x0049198c        0x4 c:/mingw/bin/../lib/gcc/mingw32/6.3.0/../../..\libmoldname.a(dagwbs00082.o)
 .idata$7       0x00491990        0xc c:/mingw/bin/../lib/gcc/mingw32/6.3.0/../../..\libmoldname.a(dagwbt.o)
                0x00491990                _libmoldname_a_iname
 .idata$7       0x0049199c        0x4 c:/mingw/bin/../lib/gcc/mingw32/6.3.0/../../..\libmsvcrt.a(djpvbs00088.o)
 .idata$7       0x004919a0        0x4 c:/mingw/bin/../lib/gcc/mingw32/6.3.0/../../..\libmsvcrt.a(djpvbs00119.o)
 .idata$7       0x004919a4        0x4 c:/mingw/bin/../lib/gcc/mingw32/6.3.0/../../..\libmsvcrt.a(djpvbs00131.o)
 .idata$7       0x004919a8        0x4 c:/mingw/bin/../lib/gcc/mingw32/6.3.0/../../..\libmsvcrt.a(djpvbs00133.o)
 .idata$7       0x004919ac        0x4 c:/mingw/bin/../lib/gcc/mingw32/6.3.0/../../..\libmsvcrt.a(djpvbs00153.o)
 .idata$7       0x004919b0        0x4 c:/mingw/bin/../lib/gcc/mingw32/6.3.0/../../..\libmsvcrt.a(djpvbs00219.o)
 .idata$7       0x004919b4        0x4 c:/mingw/bin/../lib/gcc/mingw32/6.3.0/../../..\libmsvcrt.a(djpvbs00285.o)
 .idata$7       0x004919b8        0x4 c:/mingw/bin/../lib/gcc/mingw32/6.3.0/../../..\libmsvcrt.a(djpvbs00324.o)
 .idata$7       0x004919bc        0x4 c:/mingw/bin/../lib/gcc/mingw32/6.3.0/../../..\libmsvcrt.a(djpvbs00350.o)
 .idata$7       0x004919c0        0x4 c:/mingw/bin/../lib/gcc/mingw32/6.3.0/../../..\libmsvcrt.a(djpvbs00379.o)
 .idata$7       0x004919c4        0x4 c:/mingw/bin/../lib/gcc/mingw32/6.3.0/../../..\libmsvcrt.a(djpvbs00417.o)
 .idata$7       0x004919c8        0x4 c:/mingw/bin/../lib/gcc/mingw32/6.3.0/../../..\libmsvcrt.a(djpvbs00422.o)
 .idata$7       0x004919cc        0x4 c:/mingw/bin/../lib/gcc/mingw32/6.3.0/../../..\libmsvcrt.a(djpvbs00689.o)
 .idata$7       0x004919d0        0x4 c:/mingw/bin/../lib/gcc/mingw32/6.3.0/../../..\libmsvcrt.a(djpvbs00698.o)
 .idata$7       0x004919d4        0x4 c:/mingw/bin/../lib/gcc/mingw32/6.3.0/../../..\libmsvcrt.a(djpvbs00753.o)
 .idata$7       0x004919d8        0x4 c:/mingw/bin/../lib/gcc/mingw32/6.3.0/../../..\libmsvcrt.a(djpvbs00803.o)
 .idata$7       0x004919dc        0x4 c:/mingw/bin/../lib/gcc/mingw32/6.3.0/../../..\libmsvcrt.a(djpvbs01083.o)
 .idata$7       0x004919e0        0x4 c:/mingw/bin/../lib/gcc/mingw32/6.3.0/../../..\libmsvcrt.a(djpvbs01091.o)
 .idata$7       0x004919e4        0x4 c:/mingw/bin/../lib/gcc/mingw32/6.3.0/../../..\libmsvcrt.a(djpvbs01093.o)
 .idata$7       0x004919e8        0x4 c:/mingw/bin/../lib/gcc/mingw32/6.3.0/../../..\libmsvcrt.a(djpvbs01098.o)
 .idata$7       0x004919ec        0x4 c:/mingw/bin/../lib/gcc/mingw32/6.3.0/../../..\libmsvcrt.a(djpvbs01099.o)
 .idata$7       0x004919f0        0x4 c:/mingw/bin/../lib/gcc/mingw32/6.3.0/../../..\libmsvcrt.a(djpvbs01102.o)
 .idata$7       0x004919f4        0x4 c:/mingw/bin/../lib/gcc/mingw32/6.3.0/../../..\libmsvcrt.a(djpvbs01106.o)
 .idata$7       0x004919f8        0x4 c:/mingw/bin/../lib/gcc/mingw32/6.3.0/../../..\libmsvcrt.a(djpvbs01108.o)
 .idata$7       0x004919fc        0x4 c:/mingw/bin/../lib/gcc/mingw32/6.3.0/../../..\libmsvcrt.a(djpvbs01111.o)
 .idata$7       0x00491a00        0x4 c:/mingw/bin/../lib/gcc/mingw32/6.3.0/../../..\libmsvcrt.a(djpvbs01122.o)
 .idata$7       0x00491a04        0x4 c:/mingw/bin/../lib/gcc/mingw32/6.3.0/../../..\libmsvcrt.a(djpvbs01126.o)
 .idata$7       0x00491a08        0x4 c:/mingw/bin/../lib/gcc/mingw32/6.3.0/../../..\libmsvcrt.a(djpvbs01131.o)
 .idata$7       0x00491a0c        0x4 c:/mingw/bin/../lib/gcc/mingw32/6.3.0/../../..\libmsvcrt.a(djpvbs01142.o)
 .idata$7       0x00491a10        0x4 c:/mingw/bin/../lib/gcc/mingw32/6.3.0/../../..\libmsvcrt.a(djpvbs01147.o)
 .idata$7       0x00491a14        0x4 c:/mingw/bin/../lib/gcc/mingw32/6.3.0/../../..\libmsvcrt.a(djpvbs01161.o)
 .idata$7       0x00491a18        0x4 c:/mingw/bin/../lib/gcc/mingw32/6.3.0/../../..\libmsvcrt.a(djpvbs01163.o)
 .idata$7       0x00491a1c        0x4 c:/mingw/bin/../lib/gcc/mingw32/6.3.0/../../..\libmsvcrt.a(djpvbs01182.o)
 .idata$7       0x00491a20        0x4 c:/mingw/bin/../lib/gcc/mingw32/6.3.0/../../..\libmsvcrt.a(djpvbs01183.o)
 .idata$7       0x00491a24        0x4 c:/mingw/bin/../lib/gcc/mingw32/6.3.0/../../..\libmsvcrt.a(djpvbs01184.o)
 .idata$7       0x00491a28        0x4 c:/mingw/bin/../lib/gcc/mingw32/6.3.0/../../..\libmsvcrt.a(djpvbs01185.o)
 .idata$7       0x00491a2c        0x4 c:/mingw/bin/../lib/gcc/mingw32/6.3.0/../../..\libmsvcrt.a(djpvbs01187.o)
 .idata$7       0x00491a30        0x4 c:/mingw/bin/../lib/gcc/mingw32/6.3.0/../../..\libmsvcrt.a(djpvbs01194.o)
 .idata$7       0x00491a34        0x4 c:/mingw/bin/../lib/gcc/mingw32/6.3.0/../../..\libmsvcrt.a(djpvbs01199.o)
 .idata$7       0x00491a38        0x4 c:/mingw/bin/../lib/gcc/mingw32/6.3.0/../../..\libmsvcrt.a(djpvbs01201.o)
 .idata$7       0x00491a3c        0x4 c:/mingw/bin/../lib/gcc/mingw32/6.3.0/../../..\libmsvcrt.a(djpvbs01203.o)
 .idata$7       0x00491a40        0x4 c:/mingw/bin/../lib/gcc/mingw32/6.3.0/../../..\libmsvcrt.a(djpvbs01204.o)
 .idata$7       0x00491a44        0x4 c:/mingw/bin/../lib/gcc/mingw32/6.3.0/../../..\libmsvcrt.a(djpvbs01207.o)
 .idata$7       0x00491a48        0x4 c:/mingw/bin/../lib/gcc/mingw32/6.3.0/../../..\libmsvcrt.a(djpvbs01211.o)
 .idata$7       0x00491a4c        0x4 c:/mingw/bin/../lib/gcc/mingw32/6.3.0/../../..\libmsvcrt.a(djpvbs01212.o)
 .idata$7       0x00491a50        0x4 c:/mingw/bin/../lib/gcc/mingw32/6.3.0/../../..\libmsvcrt.a(djpvbs01215.o)
 .idata$7       0x00491a54        0x4 c:/mingw/bin/../lib/gcc/mingw32/6.3.0/../../..\libmsvcrt.a(djpvbs01218.o)
 .idata$7       0x00491a58        0x4 c:/mingw/bin/../lib/gcc/mingw32/6.3.0/../../..\libmsvcrt.a(djpvbs01220.o)
 .idata$7       0x00491a5c        0x4 c:/mingw/bin/../lib/gcc/mingw32/6.3.0/../../..\libmsvcrt.a(djpvbs01227.o)
 .idata$7       0x00491a60        0x4 c:/mingw/bin/../lib/gcc/mingw32/6.3.0/../../..\libmsvcrt.a(djpvbs01229.o)
 .idata$7       0x00491a64        0x4 c:/mingw/bin/../lib/gcc/mingw32/6.3.0/../../..\libmsvcrt.a(djpvbs01230.o)
 .idata$7       0x00491a68        0x4 c:/mingw/bin/../lib/gcc/mingw32/6.3.0/../../..\libmsvcrt.a(djpvbs01235.o)
 .idata$7       0x00491a6c        0x4 c:/mingw/bin/../lib/gcc/mingw32/6.3.0/../../..\libmsvcrt.a(djpvbs01236.o)
 .idata$7       0x00491a70        0x4 c:/mingw/bin/../lib/gcc/mingw32/6.3.0/../../..\libmsvcrt.a(djpvbs01240.o)
 .idata$7       0x00491a74        0x4 c:/mingw/bin/../lib/gcc/mingw32/6.3.0/../../..\libmsvcrt.a(djpvbs01241.o)
 .idata$7       0x00491a78        0x4 c:/mingw/bin/../lib/gcc/mingw32/6.3.0/../../..\libmsvcrt.a(djpvbs01242.o)
 .idata$7       0x00491a7c        0x4 c:/mingw/bin/../lib/gcc/mingw32/6.3.0/../../..\libmsvcrt.a(djpvbs01243.o)
 .idata$7       0x00491a80        0x4 c:/mingw/bin/../lib/gcc/mingw32/6.3.0/../../..\libmsvcrt.a(djpvbs01245.o)
 .idata$7       0x00491a84        0x4 c:/mingw/bin/../lib/gcc/mingw32/6.3.0/../../..\libmsvcrt.a(djpvbs01249.o)
 .idata$7       0x00491a88        0x4 c:/mingw/bin/../lib/gcc/mingw32/6.3.0/../../..\libmsvcrt.a(djpvbs01252.o)
 .idata$7       0x00491a8c        0x4 c:/mingw/bin/../lib/gcc/mingw32/6.3.0/../../..\libmsvcrt.a(djpvbs01253.o)
 .idata$7       0x00491a90        0x4 c:/mingw/bin/../lib/gcc/mingw32/6.3.0/../../..\libmsvcrt.a(djpvbs01257.o)
 .idata$7       0x00491a94        0x4 c:/mingw/bin/../lib/gcc/mingw32/6.3.0/../../..\libmsvcrt.a(djpvbs01258.o)
 .idata$7       0x00491a98        0x4 c:/mingw/bin/../lib/gcc/mingw32/6.3.0/../../..\libmsvcrt.a(djpvbs01269.o)
 .idata$7       0x00491a9c        0x4 c:/mingw/bin/../lib/gcc/mingw32/6.3.0/../../..\libmsvcrt.a(djpvbs01272.o)
 .idata$7       0x00491aa0        0x4 c:/mingw/bin/../lib/gcc/mingw32/6.3.0/../../..\libmsvcrt.a(djpvbs01277.o)
 .idata$7       0x00491aa4        0x4 c:/mingw/bin/../lib/gcc/mingw32/6.3.0/../../..\libmsvcrt.a(djpvbs01278.o)
 .idata$7       0x00491aa8        0x4 c:/mingw/bin/../lib/gcc/mingw32/6.3.0/../../..\libmsvcrt.a(djpvbs01284.o)
 .idata$7       0x00491aac        0x4 c:/mingw/bin/../lib/gcc/mingw32/6.3.0/../../..\libmsvcrt.a(djpvbs01308.o)
 .idata$7       0x00491ab0        0x4 c:/mingw/bin/../lib/gcc/mingw32/6.3.0/../../..\libmsvcrt.a(djpvbs01325.o)
 .idata$7       0x00491ab4        0xc c:/mingw/bin/../lib/gcc/mingw32/6.3.0/../../..\libmsvcrt.a(djpvbt.o)
                0x00491ab4                _libmsvcrt_a_iname

.CRT            0x00492000      0x200
                0x00492000                ___crt_xc_start__ = .
 *(SORT(.CRT$XC*))
                0x00492000                ___crt_xc_end__ = .
                0x00492000                ___crt_xi_start__ = .
 *(SORT(.CRT$XI*))
                0x00492000                ___crt_xi_end__ = .
                0x00492000                ___crt_xl_start__ = .
 *(SORT(.CRT$XL*))
 .CRT$XLA       0x00492000        0x4 c:/mingw/bin/../lib/gcc/mingw32/6.3.0/../../..\libmingw32.a(tlssup.o)
                0x00492000                __xl_a
 .CRT$XLC       0x00492004        0x4 c:/mingw/bin/../lib/gcc/mingw32/6.3.0/../../..\libmingw32.a(tlssup.o)
                0x00492004                __xl_c
 .CRT$XLD       0x00492008        0x4 c:/mingw/bin/../lib/gcc/mingw32/6.3.0/../../..\libmingw32.a(tlssup.o)
                0x00492008                __xl_d
 .CRT$XLZ       0x0049200c        0x4 c:/mingw/bin/../lib/gcc/mingw32/6.3.0/../../..\libmingw32.a(tlssup.o)
                0x0049200c                __xl_z
                0x00492010                ___crt_xp_start__ = .
 *(SORT(.CRT$XP*))
                0x00492010                ___crt_xp_end__ = .
                0x00492010                ___crt_xt_start__ = .
 *(SORT(.CRT$XT*))
                0x00492010                ___crt_xt_end__ = .
 .CRT$XDA       0x00492010        0x4 c:/mingw/bin/../lib/gcc/mingw32/6.3.0/../../..\libmingw32.a(tlssup.o)
 .CRT$XDZ       0x00492014        0x4 c:/mingw/bin/../lib/gcc/mingw32/6.3.0/../../..\libmingw32.a(tlssup.o)

.tls            0x00493000      0x200
                0x00493000                ___tls_start__ = .
 *(.tls$AAA)
 .tls$AAA       0x00493000        0x4 c:/mingw/bin/../lib/gcc/mingw32/6.3.0/../../..\libmingw32.a(tlssup.o)
                0x00493000                _tls_start
 *(.tls)
 .tls           0x00493004       0x18 c:/mingw/bin/../lib/gcc/mingw32/6.3.0/../../..\libmingw32.a(tlssup.o)
                0x00493004                _tls_used
 *(.tls$)
 *(SORT(.tls$*))
 .tls$ZZZ       0x0049301c        0x4 c:/mingw/bin/../lib/gcc/mingw32/6.3.0/../../..\libmingw32.a(tlssup.o)
                0x0049301c                _tls_end
 *(.tls$ZZZ)
                0x00493020                ___tls_end__ = .

.endjunk        0x00494000        0x0
                [!provide]                PROVIDE (end, .)
                [!provide]                PROVIDE (_end, .)
                0x00494000                __end__ = .

.rsrc
 *(.rsrc)
 *(.rsrc$*)

.reloc
 *(.reloc)

.stab
 *(.stab)

.stabstr
 *(.stabstr)

.debug_aranges  0x00494000     0x3600
 *(.debug_aranges)
 .debug_aranges
                0x00494000       0x40 build/microcontroller_drv.o
 .debug_aranges
                0x00494040       0x30 build/cpu_x86.o
 .debug_aranges
                0x00494070       0x20 build/scheduler_config.o
 .debug_aranges
                0x00494090       0x18 build/clock_config.o
 .debug_aranges
                0x004940a8       0x20 build/super_cycle_config.o
 .debug_aranges
                0x004940c8       0x20 build/storage_config.o
 .debug_aranges
                0x004940e8       0x20 build/writer_config.o
 .debug_aranges
                0x00494108       0x80 build/akip1160_mcal.o
 .debug_aranges
                0x00494188       0x30 build/akip1160_commands.o
 .debug_aranges
                0x004941b8       0x18 build/applications_commands.o
 .debug_aranges
                0x004941d0       0x30 build/mcal_diag.o
 .debug_aranges
                0x00494200       0xa8 build/clock_general.o
 .debug_aranges
                0x004942a8       0x48 build/clock_diag.o
 .debug_aranges
                0x004942f0       0x50 build/clock_commands.o
 .debug_aranges
                0x00494340       0x18 build/hal_diag.o
 .debug_aranges
                0x00494358       0x88 build/clock_mcal.o
 .debug_aranges
                0x004943e0       0x28 build/clock_custom_diag.o
 .debug_aranges
                0x00494408       0x40 build/clock_custom_commands.o
 .debug_aranges
                0x00494448      0x1a0 build/array.o
 .debug_aranges
                0x004945e8       0xc8 build/array_diag.o
 .debug_aranges
                0x004946b0       0x20 build/array_commands.o
 .debug_aranges
                0x004946d0       0x68 build/fifo_index.o
 .debug_aranges
                0x00494738       0x60 build/fifo_array.o
 .debug_aranges
                0x00494798       0x90 build/fifo_char.o
 .debug_aranges
                0x00494828      0x278 build/convert.o
 .debug_aranges
                0x00494aa0      0x110 build/num_to_str.o
 .debug_aranges
                0x00494bb0       0x40 build/convert_diag.o
 .debug_aranges
                0x00494bf0       0xb8 build/str_utils.o
 .debug_aranges
                0x00494ca8       0x48 build/str_utils_ex.o
 .debug_aranges
                0x00494cf0      0x150 build/log.o
 .debug_aranges
                0x00494e40       0x60 build/table_utils.o
 .debug_aranges
                0x00494ea0       0xd0 build/writer.o
 .debug_aranges
                0x00494f70       0x40 build/writer_stdout.o
 .debug_aranges
                0x00494fb0       0x50 build/log_utils.o
 .debug_aranges
                0x00495000       0x68 build/oprintf.o
 .debug_aranges
                0x00495068       0xe0 build/print_format.o
 .debug_aranges
                0x00495148       0x50 build/log_commands.o
 .debug_aranges
                0x00495198       0x30 build/interface_drv.o
 .debug_aranges
                0x004951c8       0x18 build/if_config.o
 .debug_aranges
                0x004951e0       0xb8 build/serial_port.o
 .debug_aranges
                0x00495298       0x40 build/serial_port_diag.o
 .debug_aranges
                0x004952d8       0x40 build/serial_port_commands.o
 .debug_aranges
                0x00495318       0x48 build/protocol.o
 .debug_aranges
                0x00495360       0x50 build/protocol_diag.o
 .debug_aranges
                0x004953b0      0x100 build/cli_drv.o
 .debug_aranges
                0x004954b0       0x18 build/cli_general_config.o
 .debug_aranges
                0x004954c8       0x48 build/cli_diag.o
 .debug_aranges
                0x00495510       0x80 build/cli_native_commands.o
 .debug_aranges
                0x00495590       0xe8 build/csv.o
 .debug_aranges
                0x00495678       0xb8 build/string_reader.o
 .debug_aranges
                0x00495730       0x20 build/connectivity.o
 .debug_aranges
                0x00495750       0x20 build/connectivity_diag.o
 .debug_aranges
                0x00495770       0x18 build/control_commands.o
 .debug_aranges
                0x00495788       0x28 build/control_diag.o
 .debug_aranges
                0x004957b0       0x50 build/debugger.o
 .debug_aranges
                0x00495800       0x68 build/debugger_commands.o
 .debug_aranges
                0x00495868       0x80 build/super_cycle.o
 .debug_aranges
                0x004958e8       0x20 build/super_cycle_diag.o
 .debug_aranges
                0x00495908       0x30 build/super_cycle_commands.o
 .debug_aranges
                0x00495938       0x50 build/system.o
 .debug_aranges
                0x00495988       0x68 build/scheduler_mcal.o
 .debug_aranges
                0x004959f0       0x48 build/scheduler_diag.o
 .debug_aranges
                0x00495a38       0x48 build/scheduler_commands.o
 .debug_aranges
                0x00495a80       0x40 build/win_utils.o
 .debug_aranges
                0x00495ac0       0x20 build/pc_commands.o
 .debug_aranges
                0x00495ae0       0x28 build/rational_num.o
 .debug_aranges
                0x00495b08       0x20 build/rational_num_diag.o
 .debug_aranges
                0x00495b28       0x38 build/limiter.o
 .debug_aranges
                0x00495b60      0x128 build/utils_math.o
 .debug_aranges
                0x00495c88       0x20 build/math_diag.o
 .debug_aranges
                0x00495ca8       0x20 build/math_commands.o
 .debug_aranges
                0x00495cc8       0x30 build/timer_calc.o
 .debug_aranges
                0x00495cf8       0x20 build/timer_calc_diag.o
 .debug_aranges
                0x00495d18       0x20 build/timer_calc_commands.o
 .debug_aranges
                0x00495d38       0x30 build/health_monitor.o
 .debug_aranges
                0x00495d68       0x28 build/health_monitor_commands.o
 .debug_aranges
                0x00495d90      0x198 build/time_mcal.o
 .debug_aranges
                0x00495f28       0x30 build/none_blocking_pause.o
 .debug_aranges
                0x00495f58       0x48 build/time_commands.o
 .debug_aranges
                0x00495fa0       0x28 build/sensitivity.o
 .debug_aranges
                0x00495fc8       0x20 build/sensitivity_diag.o
 .debug_aranges
                0x00495fe8       0x18 build/sensitivity_commands.o
 .debug_aranges
                0x00496000       0x60 build/file_api.o
 .debug_aranges
                0x00496060       0x70 build/storage.o
 .debug_aranges
                0x004960d0       0x20 build/storage_commands.o
 .debug_aranges
                0x004960f0       0x18 build/shared_array.o
 .debug_aranges
                0x00496108       0x40 build/common_functions.o
 .debug_aranges
                0x00496148       0x20 build/common_commands.o
 .debug_aranges
                0x00496168      0x130 build/bit_utils.o
 .debug_aranges
                0x00496298       0x28 build/bit_diag.o
 .debug_aranges
                0x004962c0       0x20 build/bit_commands.o
 .debug_aranges
                0x004962e0       0x60 build/byte_utils.o
 .debug_aranges
                0x00496340       0x30 build/word_utils.o
 .debug_aranges
                0x00496370       0x30 build/dword_utils.o
 .debug_aranges
                0x004963a0       0x50 build/qword_utils.o
 .debug_aranges
                0x004963f0       0x20 build/byte_diag.o
 .debug_aranges
                0x00496410      0x148 build/data_utils.o
 .debug_aranges
                0x00496558       0x40 build/helper.o
 .debug_aranges
                0x00496598       0x98 build/float_utils.o
 .debug_aranges
                0x00496630       0x28 build/float_diag.o
 .debug_aranges
                0x00496658       0xf0 build/debug_info.o
 .debug_aranges
                0x00496748       0x30 build/print_buffer.o
 .debug_aranges
                0x00496778       0x20 build/test_config.o
 .debug_aranges
                0x00496798       0xb8 build/unit_test.o
 .debug_aranges
                0x00496850       0x48 build/unit_test_commands.o
 .debug_aranges
                0x00496898       0x58 build/test_array.o
 .debug_aranges
                0x004968f0       0x70 build/test_time_utils.o
 .debug_aranges
                0x00496960       0x40 build/float_test.o
 .debug_aranges
                0x004969a0       0x78 build/test_math.o
 .debug_aranges
                0x00496a18       0x68 build/test_csv.o
 .debug_aranges
                0x00496a80       0x38 build/test_protocol.o
 .debug_aranges
                0x00496ab8       0x30 build/test_fifo_array.o
 .debug_aranges
                0x00496ae8       0x40 build/test_fifo_char.o
 .debug_aranges
                0x00496b28       0x40 build/test_fifo_indexer.o
 .debug_aranges
                0x00496b68      0x1e8 build/test_convert.o
 .debug_aranges
                0x00496d50       0x90 build/test_string_utils.o
 .debug_aranges
                0x00496de0       0x48 build/test_libc.o
 .debug_aranges
                0x00496e28      0x110 build/test_sw_list.o
 .debug_aranges
                0x00496f38       0x20 build/main.o
 .debug_aranges
                0x00496f58       0x40 build/akip1160_diag.o
 .debug_aranges
                0x00496f98       0x50 build/log_diag.o
 .debug_aranges
                0x00496fe8       0x50 build/interfaces_diag.o
 .debug_aranges
                0x00497038       0x40 build/csv_diag.o
 .debug_aranges
                0x00497078       0x48 build/system_diag.o
 .debug_aranges
                0x004970c0       0xb0 build/time_diag.o
 .debug_aranges
                0x00497170       0x68 build/storage_diag.o
 .debug_aranges
                0x004971d8      0x108 build/common_diag.o
 .debug_aranges
                0x004972e0       0x48 build/unit_test_diag.o
 .debug_aranges
                0x00497328       0x20 build/board_config.o
 .debug_aranges
                0x00497348       0x20 build/board_monitor.o
 .debug_aranges
                0x00497368       0x28 build/cli_config.o
 .debug_aranges
                0x00497390       0x20 build/mem_config.o
 .debug_aranges
                0x004973b0       0x20 build/log_config.o
 .debug_aranges
                0x004973d0       0x20 build/string_reader_config.o
 .debug_aranges
                0x004973f0       0x20 build/serial_port_config.o
 .debug_aranges
                0x00497410       0x20 build/time_config.o
 .debug_aranges
                0x00497430       0x20 build/akip1160_config.o
 .debug_aranges
                0x00497450       0x20 c:/mingw/bin/../lib/gcc/mingw32/6.3.0\libgcc.a(_chkstk_ms.o)
 .debug_aranges
                0x00497470       0x18 c:/mingw/bin/../lib/gcc/mingw32/6.3.0\libgcc.a(_ctors.o)
 .debug_aranges
                0x00497488       0x20 c:/mingw/bin/../lib/gcc/mingw32/6.3.0\libgcc.a(_divdi3.o)
 .debug_aranges
                0x004974a8       0x20 c:/mingw/bin/../lib/gcc/mingw32/6.3.0\libgcc.a(_udivdi3.o)
 .debug_aranges
                0x004974c8       0x20 c:/mingw/bin/../lib/gcc/mingw32/6.3.0\libgcc.a(_umoddi3.o)

.zdebug_aranges
 *(.zdebug_aranges)

.debug_pubnames
 *(.debug_pubnames)

.zdebug_pubnames
 *(.zdebug_pubnames)

.debug_pubtypes
 *(.debug_pubtypes)

.zdebug_pubtypes
 *(.zdebug_pubtypes)

.debug_info     0x00498000    0xb0400
 *(.debug_info .gnu.linkonce.wi.*)
 .debug_info    0x00498000     0x10c3 build/microcontroller_drv.o
 .debug_info    0x004990c3      0xa4d build/cpu_x86.o
 .debug_info    0x00499b10     0x2e5a build/scheduler_config.o
 .debug_info    0x0049c96a      0xe86 build/clock_config.o
 .debug_info    0x0049d7f0      0xdfa build/super_cycle_config.o
 .debug_info    0x0049e5ea     0x1774 build/storage_config.o
 .debug_info    0x0049fd5e     0x1055 build/writer_config.o
 .debug_info    0x004a0db3     0x2b88 build/akip1160_mcal.o
 .debug_info    0x004a393b     0x2844 build/akip1160_commands.o
 .debug_info    0x004a617f      0x17f build/applications_commands.o
 .debug_info    0x004a62fe      0xc79 build/mcal_diag.o
 .debug_info    0x004a6f77     0x1991 build/clock_general.o
 .debug_info    0x004a8908     0x12b3 build/clock_diag.o
 .debug_info    0x004a9bbb     0x1505 build/clock_commands.o
 .debug_info    0x004ab0c0      0x995 build/hal_diag.o
 .debug_info    0x004aba55     0x17e2 build/clock_mcal.o
 .debug_info    0x004ad237      0xa08 build/clock_custom_diag.o
 .debug_info    0x004adc3f      0xbc5 build/clock_custom_commands.o
 .debug_info    0x004ae804     0x2745 build/array.o
 .debug_info    0x004b0f49     0x15af build/array_diag.o
 .debug_info    0x004b24f8      0x1ff build/array_commands.o
 .debug_info    0x004b26f7      0x55c build/fifo_index.o
 .debug_info    0x004b2c53      0x624 build/fifo_array.o
 .debug_info    0x004b3277      0x7ea build/fifo_char.o
 .debug_info    0x004b3a61     0x3df4 build/convert.o
 .debug_info    0x004b7855     0x1882 build/num_to_str.o
 .debug_info    0x004b90d7      0x68e build/convert_diag.o
 .debug_info    0x004b9765     0x1523 build/str_utils.o
 .debug_info    0x004bac88     0x10b1 build/str_utils_ex.o
 .debug_info    0x004bbd39     0x1b91 build/log.o
 .debug_info    0x004bd8ca      0xf63 build/table_utils.o
 .debug_info    0x004be82d     0x1139 build/writer.o
 .debug_info    0x004bf966      0xd20 build/writer_stdout.o
 .debug_info    0x004c0686      0xb99 build/log_utils.o
 .debug_info    0x004c121f      0x7a8 build/oprintf.o
 .debug_info    0x004c19c7     0x1a81 build/print_format.o
 .debug_info    0x004c3448      0xee8 build/log_commands.o
 .debug_info    0x004c4330     0x286b build/interface_drv.o
 .debug_info    0x004c6b9b      0x9a0 build/if_config.o
 .debug_info    0x004c753b     0x2fcd build/serial_port.o
 .debug_info    0x004ca508     0x23b6 build/serial_port_diag.o
 .debug_info    0x004cc8be     0x251a build/serial_port_commands.o
 .debug_info    0x004cedd8     0x1022 build/protocol.o
 .debug_info    0x004cfdfa     0x12aa build/protocol_diag.o
 .debug_info    0x004d10a4     0x2042 build/cli_drv.o
 .debug_info    0x004d30e6      0xf3d build/cli_general_config.o
 .debug_info    0x004d4023     0x139e build/cli_diag.o
 .debug_info    0x004d53c1     0x1c48 build/cli_native_commands.o
 .debug_info    0x004d7009     0x1b27 build/csv.o
 .debug_info    0x004d8b30     0x1d36 build/string_reader.o
 .debug_info    0x004da866      0x273 build/connectivity.o
 .debug_info    0x004daad9      0x273 build/connectivity_diag.o
 .debug_info    0x004dad4c      0x997 build/control_commands.o
 .debug_info    0x004db6e3      0xbc8 build/control_diag.o
 .debug_info    0x004dc2ab     0x10c6 build/debugger.o
 .debug_info    0x004dd371     0x1617 build/debugger_commands.o
 .debug_info    0x004de988     0x148d build/super_cycle.o
 .debug_info    0x004dfe15      0xfc4 build/super_cycle_diag.o
 .debug_info    0x004e0dd9      0xe91 build/super_cycle_commands.o
 .debug_info    0x004e1c6a     0x3d98 build/system.o
 .debug_info    0x004e5a02     0x2fec build/scheduler_mcal.o
 .debug_info    0x004e89ee     0x176b build/scheduler_diag.o
 .debug_info    0x004ea159     0x10e2 build/scheduler_commands.o
 .debug_info    0x004eb23b     0x22b1 build/win_utils.o
 .debug_info    0x004ed4ec      0x217 build/pc_commands.o
 .debug_info    0x004ed703      0x44e build/rational_num.o
 .debug_info    0x004edb51      0xa81 build/rational_num_diag.o
 .debug_info    0x004ee5d2      0xf2c build/limiter.o
 .debug_info    0x004ef4fe     0x1ae4 build/utils_math.o
 .debug_info    0x004f0fe2      0x254 build/math_diag.o
 .debug_info    0x004f1236      0xbac build/math_commands.o
 .debug_info    0x004f1de2      0xdc9 build/timer_calc.o
 .debug_info    0x004f2bab      0x30f build/timer_calc_diag.o
 .debug_info    0x004f2eba      0xc48 build/timer_calc_commands.o
 .debug_info    0x004f3b02     0x11ef build/health_monitor.o
 .debug_info    0x004f4cf1      0xf51 build/health_monitor_commands.o
 .debug_info    0x004f5c42     0x4131 build/time_mcal.o
 .debug_info    0x004f9d73     0x14e5 build/none_blocking_pause.o
 .debug_info    0x004fb258     0x10cb build/time_commands.o
 .debug_info    0x004fc323      0xb82 build/sensitivity.o
 .debug_info    0x004fcea5      0x5e0 build/sensitivity_diag.o
 .debug_info    0x004fd485      0x99f build/sensitivity_commands.o
 .debug_info    0x004fde24      0xef1 build/file_api.o
 .debug_info    0x004fed15     0x26ad build/storage.o
 .debug_info    0x005013c2      0xbc2 build/storage_commands.o
 .debug_info    0x00501f84      0x128 build/shared_array.o
 .debug_info    0x005020ac     0x37b2 build/common_functions.o
 .debug_info    0x0050585e      0xb6e build/common_commands.o
 .debug_info    0x005063cc     0x1fca build/bit_utils.o
 .debug_info    0x00508396      0xc33 build/bit_diag.o
 .debug_info    0x00508fc9      0xb99 build/bit_commands.o
 .debug_info    0x00509b62     0x1045 build/byte_utils.o
 .debug_info    0x0050aba7      0x2e4 build/word_utils.o
 .debug_info    0x0050ae8b      0x2ef build/dword_utils.o
 .debug_info    0x0050b17a      0x52f build/qword_utils.o
 .debug_info    0x0050b6a9      0x205 build/byte_diag.o
 .debug_info    0x0050b8ae     0x16ca build/data_utils.o
 .debug_info    0x0050cf78      0x474 build/helper.o
 .debug_info    0x0050d3ec     0x121a build/float_utils.o
 .debug_info    0x0050e606      0xc91 build/float_diag.o
 .debug_info    0x0050f297     0x1779 build/debug_info.o
 .debug_info    0x00510a10      0xc84 build/print_buffer.o
 .debug_info    0x00511694      0xfec build/test_config.o
 .debug_info    0x00512680     0x19a8 build/unit_test.o
 .debug_info    0x00514028      0xef3 build/unit_test_commands.o
 .debug_info    0x00514f1b     0x1532 build/test_array.o
 .debug_info    0x0051644d     0x1815 build/test_time_utils.o
 .debug_info    0x00517c62     0x16b3 build/float_test.o
 .debug_info    0x00519315     0x1818 build/test_math.o
 .debug_info    0x0051ab2d     0x186a build/test_csv.o
 .debug_info    0x0051c397      0xeb8 build/test_protocol.o
 .debug_info    0x0051d24f     0x1313 build/test_fifo_array.o
 .debug_info    0x0051e562     0x14ef build/test_fifo_char.o
 .debug_info    0x0051fa51     0x1423 build/test_fifo_indexer.o
 .debug_info    0x00520e74     0x6380 build/test_convert.o
 .debug_info    0x005271f4     0x1cce build/test_string_utils.o
 .debug_info    0x00528ec2      0xf88 build/test_libc.o
 .debug_info    0x00529e4a     0x2b87 build/test_sw_list.o
 .debug_info    0x0052c9d1     0x14ba build/main.o
 .debug_info    0x0052de8b      0xf02 build/akip1160_diag.o
 .debug_info    0x0052ed8d      0xf89 build/log_diag.o
 .debug_info    0x0052fd16     0x1307 build/interfaces_diag.o
 .debug_info    0x0053101d      0xf3d build/csv_diag.o
 .debug_info    0x00531f5a      0xfab build/system_diag.o
 .debug_info    0x00532f05     0x175a build/time_diag.o
 .debug_info    0x0053465f     0x3194 build/storage_diag.o
 .debug_info    0x005377f3     0x172c build/common_diag.o
 .debug_info    0x00538f1f      0xedb build/unit_test_diag.o
 .debug_info    0x00539dfa      0xb2f build/board_config.o
 .debug_info    0x0053a929      0x131 build/board_monitor.o
 .debug_info    0x0053aa5a     0x116e build/cli_config.o
 .debug_info    0x0053bbc8      0x1c5 build/mem_config.o
 .debug_info    0x0053bd8d      0xfc9 build/log_config.o
 .debug_info    0x0053cd56     0x1862 build/string_reader_config.o
 .debug_info    0x0053e5b8     0x2666 build/serial_port_config.o
 .debug_info    0x00540c1e      0xdbe build/time_config.o
 .debug_info    0x005419dc      0xfe7 build/akip1160_config.o
 .debug_info    0x005429c3       0xa7 c:/mingw/bin/../lib/gcc/mingw32/6.3.0\libgcc.a(_chkstk_ms.o)
 .debug_info    0x00542a6a     0x1c58 c:/mingw/bin/../lib/gcc/mingw32/6.3.0\libgcc.a(_ctors.o)
 .debug_info    0x005446c2     0x13f3 c:/mingw/bin/../lib/gcc/mingw32/6.3.0\libgcc.a(_divdi3.o)
 .debug_info    0x00545ab5     0x13ca c:/mingw/bin/../lib/gcc/mingw32/6.3.0\libgcc.a(_udivdi3.o)
 .debug_info    0x00546e7f     0x13d4 c:/mingw/bin/../lib/gcc/mingw32/6.3.0\libgcc.a(_umoddi3.o)

.zdebug_info
 *(.zdebug_info .zdebug.gnu.linkonce.wi.*)

.debug_abbrev   0x00549000     0xf000
 *(.debug_abbrev)
 .debug_abbrev  0x00549000      0x1ca build/microcontroller_drv.o
 .debug_abbrev  0x005491ca      0x195 build/cpu_x86.o
 .debug_abbrev  0x0054935f      0x1f6 build/scheduler_config.o
 .debug_abbrev  0x00549555      0x16e build/clock_config.o
 .debug_abbrev  0x005496c3      0x17e build/super_cycle_config.o
 .debug_abbrev  0x00549841      0x10a build/storage_config.o
 .debug_abbrev  0x0054994b      0x177 build/writer_config.o
 .debug_abbrev  0x00549ac2      0x214 build/akip1160_mcal.o
 .debug_abbrev  0x00549cd6      0x1e0 build/akip1160_commands.o
 .debug_abbrev  0x00549eb6       0x19 build/applications_commands.o
 .debug_abbrev  0x00549ecf      0x1b1 build/mcal_diag.o
 .debug_abbrev  0x0054a080      0x231 build/clock_general.o
 .debug_abbrev  0x0054a2b1      0x1ca build/clock_diag.o
 .debug_abbrev  0x0054a47b      0x1d7 build/clock_commands.o
 .debug_abbrev  0x0054a652      0x13d build/hal_diag.o
 .debug_abbrev  0x0054a78f      0x228 build/clock_mcal.o
 .debug_abbrev  0x0054a9b7      0x186 build/clock_custom_diag.o
 .debug_abbrev  0x0054ab3d      0x195 build/clock_custom_commands.o
 .debug_abbrev  0x0054acd2      0x27a build/array.o
 .debug_abbrev  0x0054af4c      0x203 build/array_diag.o
 .debug_abbrev  0x0054b14f       0x6d build/array_commands.o
 .debug_abbrev  0x0054b1bc       0xc2 build/fifo_index.o
 .debug_abbrev  0x0054b27e       0xed build/fifo_array.o
 .debug_abbrev  0x0054b36b      0x134 build/fifo_char.o
 .debug_abbrev  0x0054b49f      0x2c6 build/convert.o
 .debug_abbrev  0x0054b765      0x21f build/num_to_str.o
 .debug_abbrev  0x0054b984      0x14a build/convert_diag.o
 .debug_abbrev  0x0054bace      0x269 build/str_utils.o
 .debug_abbrev  0x0054bd37      0x1dd build/str_utils_ex.o
 .debug_abbrev  0x0054bf14      0x328 build/log.o
 .debug_abbrev  0x0054c23c      0x1c1 build/table_utils.o
 .debug_abbrev  0x0054c3fd      0x2cc build/writer.o
 .debug_abbrev  0x0054c6c9      0x200 build/writer_stdout.o
 .debug_abbrev  0x0054c8c9      0x1d5 build/log_utils.o
 .debug_abbrev  0x0054ca9e      0x1a0 build/oprintf.o
 .debug_abbrev  0x0054cc3e      0x1d2 build/print_format.o
 .debug_abbrev  0x0054ce10      0x1c7 build/log_commands.o
 .debug_abbrev  0x0054cfd7      0x1ef build/interface_drv.o
 .debug_abbrev  0x0054d1c6      0x13d build/if_config.o
 .debug_abbrev  0x0054d303      0x2be build/serial_port.o
 .debug_abbrev  0x0054d5c1      0x1eb build/serial_port_diag.o
 .debug_abbrev  0x0054d7ac      0x1e0 build/serial_port_commands.o
 .debug_abbrev  0x0054d98c      0x1df build/protocol.o
 .debug_abbrev  0x0054db6b      0x218 build/protocol_diag.o
 .debug_abbrev  0x0054dd83      0x2b4 build/cli_drv.o
 .debug_abbrev  0x0054e037      0x14e build/cli_general_config.o
 .debug_abbrev  0x0054e185      0x195 build/cli_diag.o
 .debug_abbrev  0x0054e31a      0x220 build/cli_native_commands.o
 .debug_abbrev  0x0054e53a      0x261 build/csv.o
 .debug_abbrev  0x0054e79b      0x2a1 build/string_reader.o
 .debug_abbrev  0x0054ea3c       0x81 build/connectivity.o
 .debug_abbrev  0x0054eabd       0x8c build/connectivity_diag.o
 .debug_abbrev  0x0054eb49      0x13d build/control_commands.o
 .debug_abbrev  0x0054ec86      0x195 build/control_diag.o
 .debug_abbrev  0x0054ee1b      0x1ec build/debugger.o
 .debug_abbrev  0x0054f007      0x253 build/debugger_commands.o
 .debug_abbrev  0x0054f25a      0x235 build/super_cycle.o
 .debug_abbrev  0x0054f48f      0x1a5 build/super_cycle_diag.o
 .debug_abbrev  0x0054f634      0x1b4 build/super_cycle_commands.o
 .debug_abbrev  0x0054f7e8      0x2a6 build/system.o
 .debug_abbrev  0x0054fa8e      0x228 build/scheduler_mcal.o
 .debug_abbrev  0x0054fcb6      0x1d4 build/scheduler_diag.o
 .debug_abbrev  0x0054fe8a      0x1b6 build/scheduler_commands.o
 .debug_abbrev  0x00550040      0x20c build/win_utils.o
 .debug_abbrev  0x0055024c       0x7e build/pc_commands.o
 .debug_abbrev  0x005502ca       0xb3 build/rational_num.o
 .debug_abbrev  0x0055037d      0x18b build/rational_num_diag.o
 .debug_abbrev  0x00550508      0x1f0 build/limiter.o
 .debug_abbrev  0x005506f8      0x24c build/utils_math.o
 .debug_abbrev  0x00550944       0x8c build/math_diag.o
 .debug_abbrev  0x005509d0      0x182 build/math_commands.o
 .debug_abbrev  0x00550b52      0x1d4 build/timer_calc.o
 .debug_abbrev  0x00550d26       0xc7 build/timer_calc_diag.o
 .debug_abbrev  0x00550ded      0x184 build/timer_calc_commands.o
 .debug_abbrev  0x00550f71      0x1cf build/health_monitor.o
 .debug_abbrev  0x00551140      0x1a6 build/health_monitor_commands.o
 .debug_abbrev  0x005512e6      0x2c6 build/time_mcal.o
 .debug_abbrev  0x005515ac      0x1f7 build/none_blocking_pause.o
 .debug_abbrev  0x005517a3      0x1d1 build/time_commands.o
 .debug_abbrev  0x00551974       0xf2 build/sensitivity.o
 .debug_abbrev  0x00551a66       0x8c build/sensitivity_diag.o
 .debug_abbrev  0x00551af2      0x13d build/sensitivity_commands.o
 .debug_abbrev  0x00551c2f      0x1cf build/file_api.o
 .debug_abbrev  0x00551dfe      0x244 build/storage.o
 .debug_abbrev  0x00552042      0x18b build/storage_commands.o
 .debug_abbrev  0x005521cd       0x49 build/shared_array.o
 .debug_abbrev  0x00552216      0x21c build/common_functions.o
 .debug_abbrev  0x00552432      0x17b build/common_commands.o
 .debug_abbrev  0x005525ad      0x259 build/bit_utils.o
 .debug_abbrev  0x00552806      0x19e build/bit_diag.o
 .debug_abbrev  0x005529a4      0x17b build/bit_commands.o
 .debug_abbrev  0x00552b1f      0x1d8 build/byte_utils.o
 .debug_abbrev  0x00552cf7       0x99 build/word_utils.o
 .debug_abbrev  0x00552d90       0x97 build/dword_utils.o
 .debug_abbrev  0x00552e27       0xda build/qword_utils.o
 .debug_abbrev  0x00552f01       0x74 build/byte_diag.o
 .debug_abbrev  0x00552f75      0x210 build/data_utils.o
 .debug_abbrev  0x00553185      0x100 build/helper.o
 .debug_abbrev  0x00553285      0x1e3 build/float_utils.o
 .debug_abbrev  0x00553468      0x195 build/float_diag.o
 .debug_abbrev  0x005535fd      0x2c5 build/debug_info.o
 .debug_abbrev  0x005538c2      0x18f build/print_buffer.o
 .debug_abbrev  0x00553a51      0x199 build/test_config.o
 .debug_abbrev  0x00553bea      0x2f6 build/unit_test.o
 .debug_abbrev  0x00553ee0      0x1b4 build/unit_test_commands.o
 .debug_abbrev  0x00554094      0x1ad build/test_array.o
 .debug_abbrev  0x00554241      0x1e1 build/test_time_utils.o
 .debug_abbrev  0x00554422      0x19c build/float_test.o
 .debug_abbrev  0x005545be      0x21c build/test_math.o
 .debug_abbrev  0x005547da      0x1ad build/test_csv.o
 .debug_abbrev  0x00554987      0x1b2 build/test_protocol.o
 .debug_abbrev  0x00554b39      0x1b4 build/test_fifo_array.o
 .debug_abbrev  0x00554ced      0x1e2 build/test_fifo_char.o
 .debug_abbrev  0x00554ecf      0x1b6 build/test_fifo_indexer.o
 .debug_abbrev  0x00555085      0x245 build/test_convert.o
 .debug_abbrev  0x005552ca      0x208 build/test_string_utils.o
 .debug_abbrev  0x005554d2      0x1e2 build/test_libc.o
 .debug_abbrev  0x005556b4      0x2f7 build/test_sw_list.o
 .debug_abbrev  0x005559ab      0x1ca build/main.o
 .debug_abbrev  0x00555b75      0x1a8 build/akip1160_diag.o
 .debug_abbrev  0x00555d1d      0x1ec build/log_diag.o
 .debug_abbrev  0x00555f09      0x1cf build/interfaces_diag.o
 .debug_abbrev  0x005560d8      0x1c9 build/csv_diag.o
 .debug_abbrev  0x005562a1      0x1f0 build/system_diag.o
 .debug_abbrev  0x00556491      0x250 build/time_diag.o
 .debug_abbrev  0x005566e1      0x256 build/storage_diag.o
 .debug_abbrev  0x00556937      0x26d build/common_diag.o
 .debug_abbrev  0x00556ba4      0x1ce build/unit_test_diag.o
 .debug_abbrev  0x00556d72      0x15b build/board_config.o
 .debug_abbrev  0x00556ecd       0x48 build/board_monitor.o
 .debug_abbrev  0x00556f15      0x1af build/cli_config.o
 .debug_abbrev  0x005570c4       0x55 build/mem_config.o
 .debug_abbrev  0x00557119      0x177 build/log_config.o
 .debug_abbrev  0x00557290      0x188 build/string_reader_config.o
 .debug_abbrev  0x00557418      0x1dc build/serial_port_config.o
 .debug_abbrev  0x005575f4      0x177 build/time_config.o
 .debug_abbrev  0x0055776b      0x188 build/akip1160_config.o
 .debug_abbrev  0x005578f3       0x14 c:/mingw/bin/../lib/gcc/mingw32/6.3.0\libgcc.a(_chkstk_ms.o)
 .debug_abbrev  0x00557907      0x11b c:/mingw/bin/../lib/gcc/mingw32/6.3.0\libgcc.a(_ctors.o)
 .debug_abbrev  0x00557a22      0x1ec c:/mingw/bin/../lib/gcc/mingw32/6.3.0\libgcc.a(_divdi3.o)
 .debug_abbrev  0x00557c0e      0x1d6 c:/mingw/bin/../lib/gcc/mingw32/6.3.0\libgcc.a(_udivdi3.o)
 .debug_abbrev  0x00557de4      0x1e5 c:/mingw/bin/../lib/gcc/mingw32/6.3.0\libgcc.a(_umoddi3.o)

.zdebug_abbrev
 *(.zdebug_abbrev)

.debug_line     0x00558000    0x28600
 *(.debug_line)
 .debug_line    0x00558000      0x3ed build/microcontroller_drv.o
 .debug_line    0x005583ed        0x0 build/microcontroller_diag.o
 .debug_line    0x005583ed        0x0 build/microcontroller_commands.o
 .debug_line    0x005583ed      0x2ab build/cpu_x86.o
 .debug_line    0x00558698      0x5b6 build/scheduler_config.o
 .debug_line    0x00558c4e      0x32f build/clock_config.o
 .debug_line    0x00558f7d      0x390 build/super_cycle_config.o
 .debug_line    0x0055930d      0x161 build/storage_config.o
 .debug_line    0x0055946e      0x2f5 build/writer_config.o
 .debug_line    0x00559763      0x658 build/akip1160_mcal.o
 .debug_line    0x00559dbb      0x4f7 build/akip1160_commands.o
 .debug_line    0x0055a2b2       0x1d build/applications_commands.o
 .debug_line    0x0055a2cf      0x349 build/mcal_diag.o
 .debug_line    0x0055a618      0x5a9 build/clock_general.o
 .debug_line    0x0055abc1      0x3ea build/clock_diag.o
 .debug_line    0x0055afab      0x497 build/clock_commands.o
 .debug_line    0x0055b442      0x26a build/hal_diag.o
 .debug_line    0x0055b6ac      0x58b build/clock_mcal.o
 .debug_line    0x0055bc37      0x2da build/clock_custom_diag.o
 .debug_line    0x0055bf11      0x323 build/clock_custom_commands.o
 .debug_line    0x0055c234      0xc8d build/array.o
 .debug_line    0x0055cec1      0x72b build/array_diag.o
 .debug_line    0x0055d5ec       0x8b build/array_commands.o
 .debug_line    0x0055d677      0x182 build/fifo_index.o
 .debug_line    0x0055d7f9      0x1e1 build/fifo_array.o
 .debug_line    0x0055d9da      0x28e build/fifo_char.o
 .debug_line    0x0055dc68     0x114d build/convert.o
 .debug_line    0x0055edb5      0x7c4 build/num_to_str.o
 .debug_line    0x0055f579      0x13c build/convert_diag.o
 .debug_line    0x0055f6b5      0x6b6 build/str_utils.o
 .debug_line    0x0055fd6b      0x473 build/str_utils_ex.o
 .debug_line    0x005601de      0x7e6 build/log.o
 .debug_line    0x005609c4      0x39a build/table_utils.o
 .debug_line    0x00560d5e      0x57a build/writer.o
 .debug_line    0x005612d8      0x34f build/writer_stdout.o
 .debug_line    0x00561627      0x380 build/log_utils.o
 .debug_line    0x005619a7      0x39d build/oprintf.o
 .debug_line    0x00561d44      0x48f build/print_format.o
 .debug_line    0x005621d3      0x3cf build/log_commands.o
 .debug_line    0x005625a2      0x40f build/interface_drv.o
 .debug_line    0x005629b1      0x26a build/if_config.o
 .debug_line    0x00562c1b      0x720 build/serial_port.o
 .debug_line    0x0056333b      0x45a build/serial_port_diag.o
 .debug_line    0x00563795      0x487 build/serial_port_commands.o
 .debug_line    0x00563c1c      0x3ef build/protocol.o
 .debug_line    0x0056400b      0x482 build/protocol_diag.o
 .debug_line    0x0056448d      0x917 build/cli_drv.o
 .debug_line    0x00564da4      0x37a build/cli_general_config.o
 .debug_line    0x0056511e      0x504 build/cli_diag.o
 .debug_line    0x00565622      0x6b7 build/cli_native_commands.o
 .debug_line    0x00565cd9      0x7d9 build/csv.o
 .debug_line    0x005664b2      0x7c1 build/string_reader.o
 .debug_line    0x00566c73        0x0 build/string_reader_commands.o
 .debug_line    0x00566c73       0x8f build/connectivity.o
 .debug_line    0x00566d02        0x0 build/connectivity_commands.o
 .debug_line    0x00566d02       0x96 build/connectivity_diag.o
 .debug_line    0x00566d98      0x26a build/control_commands.o
 .debug_line    0x00567002      0x311 build/control_diag.o
 .debug_line    0x00567313      0x4bc build/debugger.o
 .debug_line    0x005677cf      0x5c3 build/debugger_commands.o
 .debug_line    0x00567d92      0x5cb build/super_cycle.o
 .debug_line    0x0056835d      0x420 build/super_cycle_diag.o
 .debug_line    0x0056877d      0x3ba build/super_cycle_commands.o
 .debug_line    0x00568b37      0x92b build/system.o
 .debug_line    0x00569462      0x722 build/scheduler_mcal.o
 .debug_line    0x00569b84      0x67a build/scheduler_diag.o
 .debug_line    0x0056a1fe      0x4d4 build/scheduler_commands.o
 .debug_line    0x0056a6d2      0x3d6 build/win_utils.o
 .debug_line    0x0056aaa8       0x96 build/pc_commands.o
 .debug_line    0x0056ab3e       0xe5 build/rational_num.o
 .debug_line    0x0056ac23      0x2eb build/rational_num_diag.o
 .debug_line    0x0056af0e      0x427 build/limiter.o
 .debug_line    0x0056b335      0x700 build/utils_math.o
 .debug_line    0x0056ba35       0x86 build/math_diag.o
 .debug_line    0x0056babb      0x31b build/math_commands.o
 .debug_line    0x0056bdd6      0x39b build/timer_calc.o
 .debug_line    0x0056c171       0xb6 build/timer_calc_diag.o
 .debug_line    0x0056c227      0x34b build/timer_calc_commands.o
 .debug_line    0x0056c572        0x0 build/computing.o
 .debug_line    0x0056c572        0x0 build/computing_commands.o
 .debug_line    0x0056c572      0x471 build/health_monitor.o
 .debug_line    0x0056c9e3      0x3ed build/health_monitor_commands.o
 .debug_line    0x0056cdd0      0xc00 build/time_mcal.o
 .debug_line    0x0056d9d0      0x4de build/none_blocking_pause.o
 .debug_line    0x0056deae      0x3fc build/time_commands.o
 .debug_line    0x0056e2aa       0xe5 build/sensitivity.o
 .debug_line    0x0056e38f       0x97 build/sensitivity_diag.o
 .debug_line    0x0056e426      0x26a build/sensitivity_commands.o
 .debug_line    0x0056e690      0x40a build/file_api.o
 .debug_line    0x0056ea9a      0x5ae build/storage.o
 .debug_line    0x0056f048      0x325 build/storage_commands.o
 .debug_line    0x0056f36d       0x6b build/shared_array.o
 .debug_line    0x0056f3d8      0x83e build/common_functions.o
 .debug_line    0x0056fc16      0x2da build/common_commands.o
 .debug_line    0x0056fef0      0x83f build/bit_utils.o
 .debug_line    0x0057072f      0x34e build/bit_diag.o
 .debug_line    0x00570a7d      0x31e build/bit_commands.o
 .debug_line    0x00570d9b      0x435 build/byte_utils.o
 .debug_line    0x005711d0       0xc3 build/word_utils.o
 .debug_line    0x00571293       0xc9 build/dword_utils.o
 .debug_line    0x0057135c      0x1a3 build/qword_utils.o
 .debug_line    0x005714ff       0x96 build/byte_diag.o
 .debug_line    0x00571595      0x67d build/data_utils.o
 .debug_line    0x00571c12      0x156 build/helper.o
 .debug_line    0x00571d68      0x4e0 build/float_utils.o
 .debug_line    0x00572248      0x3b7 build/float_diag.o
 .debug_line    0x005725ff      0x7ae build/debug_info.o
 .debug_line    0x00572dad      0x335 build/print_buffer.o
 .debug_line    0x005730e2      0x3a4 build/test_config.o
 .debug_line    0x00573486      0x765 build/unit_test.o
 .debug_line    0x00573beb      0x402 build/unit_test_commands.o
 .debug_line    0x00573fed      0x5d5 build/test_array.o
 .debug_line    0x005745c2      0x6bc build/test_time_utils.o
 .debug_line    0x00574c7e      0x797 build/float_test.o
 .debug_line    0x00575415      0x6e6 build/test_math.o
 .debug_line    0x00575afb      0x72d build/test_csv.o
 .debug_line    0x00576228      0x422 build/test_protocol.o
 .debug_line    0x0057664a      0x56f build/test_fifo_array.o
 .debug_line    0x00576bb9      0x60d build/test_fifo_char.o
 .debug_line    0x005771c6      0x684 build/test_fifo_indexer.o
 .debug_line    0x0057784a     0x223b build/test_convert.o
 .debug_line    0x00579a85      0x8cd build/test_string_utils.o
 .debug_line    0x0057a352      0x45b build/test_libc.o
 .debug_line    0x0057a7ad      0xc4a build/test_sw_list.o
 .debug_line    0x0057b3f7      0x582 build/main.o
 .debug_line    0x0057b979      0x3b1 build/akip1160_diag.o
 .debug_line    0x0057bd2a      0x46a build/log_diag.o
 .debug_line    0x0057c194      0x38c build/interfaces_diag.o
 .debug_line    0x0057c520      0x3e9 build/csv_diag.o
 .debug_line    0x0057c909      0x3c0 build/system_diag.o
 .debug_line    0x0057ccc9      0x663 build/time_diag.o
 .debug_line    0x0057d32c      0x672 build/storage_diag.o
 .debug_line    0x0057d99e      0x63a build/common_diag.o
 .debug_line    0x0057dfd8      0x402 build/unit_test_diag.o
 .debug_line    0x0057e3da      0x2d2 build/board_config.o
 .debug_line    0x0057e6ac       0x6e build/board_monitor.o
 .debug_line    0x0057e71a      0x3ff build/cli_config.o
 .debug_line    0x0057eb19       0x86 build/mem_config.o
 .debug_line    0x0057eb9f      0x2f2 build/log_config.o
 .debug_line    0x0057ee91      0x46e build/string_reader_config.o
 .debug_line    0x0057f2ff      0x3d4 build/serial_port_config.o
 .debug_line    0x0057f6d3      0x342 build/time_config.o
 .debug_line    0x0057fa15      0x3c1 build/akip1160_config.o
 .debug_line    0x0057fdd6        0x0 build/third_party_main.o
 .debug_line    0x0057fdd6       0x71 c:/mingw/bin/../lib/gcc/mingw32/6.3.0\libgcc.a(_chkstk_ms.o)
 .debug_line    0x0057fe47      0x157 c:/mingw/bin/../lib/gcc/mingw32/6.3.0\libgcc.a(_ctors.o)
 .debug_line    0x0057ff9e      0x1ac c:/mingw/bin/../lib/gcc/mingw32/6.3.0\libgcc.a(_divdi3.o)
 .debug_line    0x0058014a      0x1ae c:/mingw/bin/../lib/gcc/mingw32/6.3.0\libgcc.a(_udivdi3.o)
 .debug_line    0x005802f8      0x1bd c:/mingw/bin/../lib/gcc/mingw32/6.3.0\libgcc.a(_umoddi3.o)

.zdebug_line
 *(.zdebug_line)

.debug_frame    0x00581000      0x200
 *(.debug_frame*)
 .debug_frame   0x00581000       0x38 c:/mingw/bin/../lib/gcc/mingw32/6.3.0\libgcc.a(_chkstk_ms.o)

.zdebug_frame
 *(.zdebug_frame*)

.debug_str      0x00582000     0x3c00
 *(.debug_str)
 .debug_str     0x00582000       0x69 build/microcontroller_drv.o
 .debug_str     0x00582069        0x0 build/microcontroller_diag.o
 .debug_str     0x00582069        0x0 build/microcontroller_commands.o
 .debug_str     0x00582069       0x51 build/cpu_x86.o
 .debug_str     0x005820ba      0x10a build/scheduler_config.o
 .debug_str     0x005821c4       0x69 build/clock_config.o
 .debug_str     0x0058222d       0x6f build/super_cycle_config.o
 .debug_str     0x0058229c        0x0 build/storage_config.o
 .debug_str     0x0058229c       0x51 build/writer_config.o
 .debug_str     0x005822ed       0xb6 build/akip1160_mcal.o
 .debug_str     0x005823a3       0xaa build/akip1160_commands.o
 .debug_str     0x0058244d        0x0 build/applications_commands.o
 .debug_str     0x0058244d       0x51 build/mcal_diag.o
 .debug_str     0x0058249e       0xa0 build/clock_general.o
 .debug_str     0x0058253e       0x69 build/clock_diag.o
 .debug_str     0x005825a7       0x87 build/clock_commands.o
 .debug_str     0x0058262e       0x51 build/hal_diag.o
 .debug_str     0x0058267f       0x9f build/clock_mcal.o
 .debug_str     0x0058271e       0x51 build/clock_custom_diag.o
 .debug_str     0x0058276f       0x51 build/clock_custom_commands.o
 .debug_str     0x005827c0       0xc2 build/array.o
 .debug_str     0x00582882       0x8e build/array_diag.o
 .debug_str     0x00582910        0x0 build/array_commands.o
 .debug_str     0x00582910        0x5 build/fifo_index.o
 .debug_str     0x00582915        0xf build/fifo_array.o
 .debug_str     0x00582924        0xe build/fifo_char.o
 .debug_str     0x00582932      0x11a build/convert.o
 .debug_str     0x00582a4c       0x77 build/num_to_str.o
 .debug_str     0x00582ac3        0x0 build/convert_diag.o
 .debug_str     0x00582ac3       0x76 build/str_utils.o
 .debug_str     0x00582b39       0x8a build/str_utils_ex.o
 .debug_str     0x00582bc3       0x8f build/log.o
 .debug_str     0x00582c52       0x7d build/table_utils.o
 .debug_str     0x00582ccf       0x87 build/writer.o
 .debug_str     0x00582d56       0x5c build/writer_stdout.o
 .debug_str     0x00582db2       0x58 build/log_utils.o
 .debug_str     0x00582e0a        0x0 build/oprintf.o
 .debug_str     0x00582e0a       0x35 build/print_format.o
 .debug_str     0x00582e3f       0x63 build/log_commands.o
 .debug_str     0x00582ea2       0x85 build/interface_drv.o
 .debug_str     0x00582f27       0x51 build/if_config.o
 .debug_str     0x00582f78       0x90 build/serial_port.o
 .debug_str     0x00583008       0x7d build/serial_port_diag.o
 .debug_str     0x00583085       0x78 build/serial_port_commands.o
 .debug_str     0x005830fd       0x5f build/protocol.o
 .debug_str     0x0058315c       0x5a build/protocol_diag.o
 .debug_str     0x005831b6      0x120 build/cli_drv.o
 .debug_str     0x005832d6       0x81 build/cli_general_config.o
 .debug_str     0x00583357       0x81 build/cli_diag.o
 .debug_str     0x005833d8      0x10d build/cli_native_commands.o
 .debug_str     0x005834e5       0xf1 build/csv.o
 .debug_str     0x005835d6       0xff build/string_reader.o
 .debug_str     0x005836d5        0x0 build/string_reader_commands.o
 .debug_str     0x005836d5        0x0 build/connectivity.o
 .debug_str     0x005836d5        0x0 build/connectivity_commands.o
 .debug_str     0x005836d5        0x0 build/connectivity_diag.o
 .debug_str     0x005836d5       0x51 build/control_commands.o
 .debug_str     0x00583726       0x51 build/control_diag.o
 .debug_str     0x00583777       0x5f build/debugger.o
 .debug_str     0x005837d6       0x93 build/debugger_commands.o
 .debug_str     0x00583869       0x9a build/super_cycle.o
 .debug_str     0x00583903       0x93 build/super_cycle_diag.o
 .debug_str     0x00583996       0x82 build/super_cycle_commands.o
 .debug_str     0x00583a18      0x17c build/system.o
 .debug_str     0x00583b94      0x136 build/scheduler_mcal.o
 .debug_str     0x00583cca       0xf8 build/scheduler_diag.o
 .debug_str     0x00583dc2       0x76 build/scheduler_commands.o
 .debug_str     0x00583e38       0x51 build/win_utils.o
 .debug_str     0x00583e89        0x0 build/pc_commands.o
 .debug_str     0x00583e89        0x0 build/rational_num.o
 .debug_str     0x00583e89       0x51 build/rational_num_diag.o
 .debug_str     0x00583eda       0x88 build/limiter.o
 .debug_str     0x00583f62      0x127 build/utils_math.o
 .debug_str     0x00584089        0x0 build/math_diag.o
 .debug_str     0x00584089       0x51 build/math_commands.o
 .debug_str     0x005840da       0x8d build/timer_calc.o
 .debug_str     0x00584167        0x0 build/timer_calc_diag.o
 .debug_str     0x00584167       0x51 build/timer_calc_commands.o
 .debug_str     0x005841b8        0x0 build/computing.o
 .debug_str     0x005841b8        0x0 build/computing_commands.o
 .debug_str     0x005841b8       0x81 build/health_monitor.o
 .debug_str     0x00584239       0x67 build/health_monitor_commands.o
 .debug_str     0x005842a0       0xe7 build/time_mcal.o
 .debug_str     0x00584387       0xb8 build/none_blocking_pause.o
 .debug_str     0x0058443f       0x7d build/time_commands.o
 .debug_str     0x005844bc       0x12 build/sensitivity.o
 .debug_str     0x005844ce        0x0 build/sensitivity_diag.o
 .debug_str     0x005844ce       0x51 build/sensitivity_commands.o
 .debug_str     0x0058451f       0x5b build/file_api.o
 .debug_str     0x0058457a       0x68 build/storage.o
 .debug_str     0x005845e2       0x51 build/storage_commands.o
 .debug_str     0x00584633        0x0 build/shared_array.o
 .debug_str     0x00584633      0x169 build/common_functions.o
 .debug_str     0x0058479c       0x51 build/common_commands.o
 .debug_str     0x005847ed       0x8c build/bit_utils.o
 .debug_str     0x00584879       0x51 build/bit_diag.o
 .debug_str     0x005848ca       0x51 build/bit_commands.o
 .debug_str     0x0058491b       0x71 build/byte_utils.o
 .debug_str     0x0058498c        0x0 build/word_utils.o
 .debug_str     0x0058498c        0x0 build/dword_utils.o
 .debug_str     0x0058498c        0x0 build/qword_utils.o
 .debug_str     0x0058498c        0x0 build/byte_diag.o
 .debug_str     0x0058498c       0x60 build/data_utils.o
 .debug_str     0x005849ec        0x0 build/helper.o
 .debug_str     0x005849ec       0x9d build/float_utils.o
 .debug_str     0x00584a89       0x51 build/float_diag.o
 .debug_str     0x00584ada       0x5e build/debug_info.o
 .debug_str     0x00584b38       0x51 build/print_buffer.o
 .debug_str     0x00584b89       0x69 build/test_config.o
 .debug_str     0x00584bf2       0x7a build/unit_test.o
 .debug_str     0x00584c6c       0x5e build/unit_test_commands.o
 .debug_str     0x00584cca       0x7f build/test_array.o
 .debug_str     0x00584d49       0x9b build/test_time_utils.o
 .debug_str     0x00584de4       0x8d build/float_test.o
 .debug_str     0x00584e71       0x8e build/test_math.o
 .debug_str     0x00584eff       0xca build/test_csv.o
 .debug_str     0x00584fc9       0x74 build/test_protocol.o
 .debug_str     0x0058503d       0x93 build/test_fifo_array.o
 .debug_str     0x005850d0       0xa6 build/test_fifo_char.o
 .debug_str     0x00585176       0x6e build/test_fifo_indexer.o
 .debug_str     0x005851e4       0x93 build/test_convert.o
 .debug_str     0x00585277       0x93 build/test_string_utils.o
 .debug_str     0x0058530a       0x74 build/test_libc.o
 .debug_str     0x0058537e       0xc1 build/test_sw_list.o
 .debug_str     0x0058543f       0xad build/main.o
 .debug_str     0x005854ec       0x67 build/akip1160_diag.o
 .debug_str     0x00585553       0x5d build/log_diag.o
 .debug_str     0x005855b0       0x56 build/interfaces_diag.o
 .debug_str     0x00585606       0x65 build/csv_diag.o
 .debug_str     0x0058566b       0x5f build/system_diag.o
 .debug_str     0x005856ca       0x98 build/time_diag.o
 .debug_str     0x00585762       0x56 build/storage_diag.o
 .debug_str     0x005857b8       0x8c build/common_diag.o
 .debug_str     0x00585844       0x51 build/unit_test_diag.o
 .debug_str     0x00585895       0x51 build/board_config.o
 .debug_str     0x005858e6        0x0 build/board_monitor.o
 .debug_str     0x005858e6       0x81 build/cli_config.o
 .debug_str     0x00585967        0x0 build/mem_config.o
 .debug_str     0x00585967       0x51 build/log_config.o
 .debug_str     0x005859b8       0xe9 build/string_reader_config.o
 .debug_str     0x00585aa1       0x78 build/serial_port_config.o
 .debug_str     0x00585b19       0x67 build/time_config.o
 .debug_str     0x00585b80       0x67 build/akip1160_config.o
 .debug_str     0x00585be7        0x0 build/third_party_main.o
 .debug_str     0x00585be7        0x0 c:/mingw/bin/../lib/gcc/mingw32/6.3.0\libgcc.a(_ctors.o)
 .debug_str     0x00585be7        0x0 c:/mingw/bin/../lib/gcc/mingw32/6.3.0\libgcc.a(_divdi3.o)
 .debug_str     0x00585be7        0x0 c:/mingw/bin/../lib/gcc/mingw32/6.3.0\libgcc.a(_udivdi3.o)
 .debug_str     0x00585be7        0x0 c:/mingw/bin/../lib/gcc/mingw32/6.3.0\libgcc.a(_umoddi3.o)

.zdebug_str
 *(.zdebug_str)

.debug_loc      0x00586000      0xe00
 *(.debug_loc)
 .debug_loc     0x00586000      0x29c c:/mingw/bin/../lib/gcc/mingw32/6.3.0\libgcc.a(_divdi3.o)
 .debug_loc     0x0058629c      0x49d c:/mingw/bin/../lib/gcc/mingw32/6.3.0\libgcc.a(_udivdi3.o)
 .debug_loc     0x00586739      0x6a0 c:/mingw/bin/../lib/gcc/mingw32/6.3.0\libgcc.a(_umoddi3.o)

.zdebug_loc
 *(.zdebug_loc)

.debug_macinfo
 *(.debug_macinfo)

.zdebug_macinfo
 *(.zdebug_macinfo)

.debug_weaknames
 *(.debug_weaknames)

.zdebug_weaknames
 *(.zdebug_weaknames)

.debug_funcnames
 *(.debug_funcnames)

.zdebug_funcnames
 *(.zdebug_funcnames)

.debug_typenames
 *(.debug_typenames)

.zdebug_typenames
 *(.zdebug_typenames)

.debug_varnames
 *(.debug_varnames)

.zdebug_varnames
 *(.zdebug_varnames)

.debug_macro
 *(.debug_macro)

.zdebug_macro
 *(.zdebug_macro)

.debug_ranges   0x00587000     0x2e00
 *(.debug_ranges)
 .debug_ranges  0x00587000       0x30 build/microcontroller_drv.o
 .debug_ranges  0x00587030       0x20 build/cpu_x86.o
 .debug_ranges  0x00587050       0x10 build/scheduler_config.o
 .debug_ranges  0x00587060       0x10 build/super_cycle_config.o
 .debug_ranges  0x00587070       0x10 build/storage_config.o
 .debug_ranges  0x00587080       0x10 build/writer_config.o
 .debug_ranges  0x00587090       0x70 build/akip1160_mcal.o
 .debug_ranges  0x00587100       0x20 build/akip1160_commands.o
 .debug_ranges  0x00587120       0x20 build/mcal_diag.o
 .debug_ranges  0x00587140       0x98 build/clock_general.o
 .debug_ranges  0x005871d8       0x38 build/clock_diag.o
 .debug_ranges  0x00587210       0x40 build/clock_commands.o
 .debug_ranges  0x00587250       0x78 build/clock_mcal.o
 .debug_ranges  0x005872c8       0x18 build/clock_custom_diag.o
 .debug_ranges  0x005872e0       0x30 build/clock_custom_commands.o
 .debug_ranges  0x00587310      0x190 build/array.o
 .debug_ranges  0x005874a0       0xb8 build/array_diag.o
 .debug_ranges  0x00587558       0x10 build/array_commands.o
 .debug_ranges  0x00587568       0x58 build/fifo_index.o
 .debug_ranges  0x005875c0       0x50 build/fifo_array.o
 .debug_ranges  0x00587610       0x80 build/fifo_char.o
 .debug_ranges  0x00587690      0x298 build/convert.o
 .debug_ranges  0x00587928      0x100 build/num_to_str.o
 .debug_ranges  0x00587a28       0x30 build/convert_diag.o
 .debug_ranges  0x00587a58       0xc0 build/str_utils.o
 .debug_ranges  0x00587b18       0x50 build/str_utils_ex.o
 .debug_ranges  0x00587b68      0x140 build/log.o
 .debug_ranges  0x00587ca8       0x50 build/table_utils.o
 .debug_ranges  0x00587cf8       0xc0 build/writer.o
 .debug_ranges  0x00587db8       0x30 build/writer_stdout.o
 .debug_ranges  0x00587de8       0x40 build/log_utils.o
 .debug_ranges  0x00587e28       0x58 build/oprintf.o
 .debug_ranges  0x00587e80       0xd0 build/print_format.o
 .debug_ranges  0x00587f50       0x40 build/log_commands.o
 .debug_ranges  0x00587f90       0x20 build/interface_drv.o
 .debug_ranges  0x00587fb0       0xa8 build/serial_port.o
 .debug_ranges  0x00588058       0x30 build/serial_port_diag.o
 .debug_ranges  0x00588088       0x30 build/serial_port_commands.o
 .debug_ranges  0x005880b8       0x38 build/protocol.o
 .debug_ranges  0x005880f0       0x40 build/protocol_diag.o
 .debug_ranges  0x00588130       0xf0 build/cli_drv.o
 .debug_ranges  0x00588220       0x38 build/cli_diag.o
 .debug_ranges  0x00588258       0x70 build/cli_native_commands.o
 .debug_ranges  0x005882c8       0xd8 build/csv.o
 .debug_ranges  0x005883a0       0xc0 build/string_reader.o
 .debug_ranges  0x00588460       0x10 build/connectivity.o
 .debug_ranges  0x00588470       0x10 build/connectivity_diag.o
 .debug_ranges  0x00588480       0x18 build/control_diag.o
 .debug_ranges  0x00588498       0x40 build/debugger.o
 .debug_ranges  0x005884d8       0x58 build/debugger_commands.o
 .debug_ranges  0x00588530       0x70 build/super_cycle.o
 .debug_ranges  0x005885a0       0x10 build/super_cycle_diag.o
 .debug_ranges  0x005885b0       0x20 build/super_cycle_commands.o
 .debug_ranges  0x005885d0       0x40 build/system.o
 .debug_ranges  0x00588610       0x58 build/scheduler_mcal.o
 .debug_ranges  0x00588668       0x38 build/scheduler_diag.o
 .debug_ranges  0x005886a0       0x38 build/scheduler_commands.o
 .debug_ranges  0x005886d8       0x30 build/win_utils.o
 .debug_ranges  0x00588708       0x10 build/pc_commands.o
 .debug_ranges  0x00588718       0x18 build/rational_num.o
 .debug_ranges  0x00588730       0x10 build/rational_num_diag.o
 .debug_ranges  0x00588740       0x28 build/limiter.o
 .debug_ranges  0x00588768      0x118 build/utils_math.o
 .debug_ranges  0x00588880       0x10 build/math_diag.o
 .debug_ranges  0x00588890       0x10 build/math_commands.o
 .debug_ranges  0x005888a0       0x20 build/timer_calc.o
 .debug_ranges  0x005888c0       0x10 build/timer_calc_diag.o
 .debug_ranges  0x005888d0       0x10 build/timer_calc_commands.o
 .debug_ranges  0x005888e0       0x20 build/health_monitor.o
 .debug_ranges  0x00588900       0x18 build/health_monitor_commands.o
 .debug_ranges  0x00588918      0x188 build/time_mcal.o
 .debug_ranges  0x00588aa0       0x20 build/none_blocking_pause.o
 .debug_ranges  0x00588ac0       0x38 build/time_commands.o
 .debug_ranges  0x00588af8       0x18 build/sensitivity.o
 .debug_ranges  0x00588b10       0x10 build/sensitivity_diag.o
 .debug_ranges  0x00588b20       0x50 build/file_api.o
 .debug_ranges  0x00588b70       0x60 build/storage.o
 .debug_ranges  0x00588bd0       0x10 build/storage_commands.o
 .debug_ranges  0x00588be0       0x30 build/common_functions.o
 .debug_ranges  0x00588c10       0x10 build/common_commands.o
 .debug_ranges  0x00588c20      0x120 build/bit_utils.o
 .debug_ranges  0x00588d40       0x18 build/bit_diag.o
 .debug_ranges  0x00588d58       0x10 build/bit_commands.o
 .debug_ranges  0x00588d68       0x50 build/byte_utils.o
 .debug_ranges  0x00588db8       0x20 build/word_utils.o
 .debug_ranges  0x00588dd8       0x20 build/dword_utils.o
 .debug_ranges  0x00588df8       0x40 build/qword_utils.o
 .debug_ranges  0x00588e38       0x10 build/byte_diag.o
 .debug_ranges  0x00588e48      0x138 build/data_utils.o
 .debug_ranges  0x00588f80       0x30 build/helper.o
 .debug_ranges  0x00588fb0       0x88 build/float_utils.o
 .debug_ranges  0x00589038       0x18 build/float_diag.o
 .debug_ranges  0x00589050       0xe0 build/debug_info.o
 .debug_ranges  0x00589130       0x20 build/print_buffer.o
 .debug_ranges  0x00589150       0x10 build/test_config.o
 .debug_ranges  0x00589160       0xd8 build/unit_test.o
 .debug_ranges  0x00589238       0x38 build/unit_test_commands.o
 .debug_ranges  0x00589270       0x48 build/test_array.o
 .debug_ranges  0x005892b8       0x60 build/test_time_utils.o
 .debug_ranges  0x00589318       0x30 build/float_test.o
 .debug_ranges  0x00589348       0x68 build/test_math.o
 .debug_ranges  0x005893b0       0x58 build/test_csv.o
 .debug_ranges  0x00589408       0x28 build/test_protocol.o
 .debug_ranges  0x00589430       0x20 build/test_fifo_array.o
 .debug_ranges  0x00589450       0x30 build/test_fifo_char.o
 .debug_ranges  0x00589480       0x30 build/test_fifo_indexer.o
 .debug_ranges  0x005894b0      0x1d8 build/test_convert.o
 .debug_ranges  0x00589688       0x80 build/test_string_utils.o
 .debug_ranges  0x00589708       0x38 build/test_libc.o
 .debug_ranges  0x00589740      0x100 build/test_sw_list.o
 .debug_ranges  0x00589840       0x10 build/main.o
 .debug_ranges  0x00589850       0x30 build/akip1160_diag.o
 .debug_ranges  0x00589880       0x40 build/log_diag.o
 .debug_ranges  0x005898c0       0x40 build/interfaces_diag.o
 .debug_ranges  0x00589900       0x30 build/csv_diag.o
 .debug_ranges  0x00589930       0x38 build/system_diag.o
 .debug_ranges  0x00589968       0xa0 build/time_diag.o
 .debug_ranges  0x00589a08       0x58 build/storage_diag.o
 .debug_ranges  0x00589a60       0xf8 build/common_diag.o
 .debug_ranges  0x00589b58       0x38 build/unit_test_diag.o
 .debug_ranges  0x00589b90       0x10 build/board_config.o
 .debug_ranges  0x00589ba0       0x10 build/board_monitor.o
 .debug_ranges  0x00589bb0       0x18 build/cli_config.o
 .debug_ranges  0x00589bc8       0x10 build/mem_config.o
 .debug_ranges  0x00589bd8       0x10 build/log_config.o
 .debug_ranges  0x00589be8       0x10 build/string_reader_config.o
 .debug_ranges  0x00589bf8       0x10 build/serial_port_config.o
 .debug_ranges  0x00589c08       0x10 build/time_config.o
 .debug_ranges  0x00589c18       0x10 build/akip1160_config.o
 .debug_ranges  0x00589c28       0x28 c:/mingw/bin/../lib/gcc/mingw32/6.3.0\libgcc.a(_divdi3.o)
 .debug_ranges  0x00589c50       0x38 c:/mingw/bin/../lib/gcc/mingw32/6.3.0\libgcc.a(_udivdi3.o)
 .debug_ranges  0x00589c88       0x38 c:/mingw/bin/../lib/gcc/mingw32/6.3.0\libgcc.a(_umoddi3.o)

.zdebug_ranges
 *(.zdebug_ranges)

.debug_types
 *(.debug_types .gnu.linkonce.wt.*)

.zdebug_types
 *(.zdebug_types .gnu.linkonce.wt.*)
OUTPUT(akip1160_6.exe pei-i386)
